	.file	"get-func-address.cpp"
	.text
.Ltext0:
	.section	.text._ZnwmPv,"axG",@progbits,_ZnwmPv,comdat
	.weak	_ZnwmPv
	.type	_ZnwmPv, @function
_ZnwmPv:
.LFB38:
	.file 1 "/usr/include/c++/9/new"
	.loc 1 174 1
	.cfi_startproc
	endbr64
	pushq	%rbp
	.cfi_def_cfa_offset 16
	.cfi_offset 6, -16
	movq	%rsp, %rbp
	.cfi_def_cfa_register 6
	movq	%rdi, -8(%rbp)
	movq	%rsi, -16(%rbp)
	.loc 1 174 10
	movq	-16(%rbp), %rax
	.loc 1 174 15
	popq	%rbp
	.cfi_def_cfa 7, 8
	ret
	.cfi_endproc
.LFE38:
	.size	_ZnwmPv, .-_ZnwmPv
	.section	.rodata
	.type	_ZStL19piecewise_construct, @object
	.size	_ZStL19piecewise_construct, 1
_ZStL19piecewise_construct:
	.zero	1
	.local	_ZStL8__ioinit
	.comm	_ZStL8__ioinit,1,1
	.section	.text._ZNSt15_Rb_tree_headerC2Ev,"axG",@progbits,_ZNSt15_Rb_tree_headerC5Ev,comdat
	.align 2
	.weak	_ZNSt15_Rb_tree_headerC2Ev
	.type	_ZNSt15_Rb_tree_headerC2Ev, @function
_ZNSt15_Rb_tree_headerC2Ev:
.LFB1540:
	.file 2 "/usr/include/c++/9/bits/stl_tree.h"
	.loc 2 173 5
	.cfi_startproc
	endbr64
	pushq	%rbp
	.cfi_def_cfa_offset 16
	.cfi_offset 6, -16
	movq	%rsp, %rbp
	.cfi_def_cfa_register 6
	subq	$16, %rsp
	movq	%rdi, -8(%rbp)
.LBB2:
	.loc 2 175 26
	movq	-8(%rbp), %rax
	movl	$0, (%rax)
	.loc 2 176 15
	movq	-8(%rbp), %rax
	movq	%rax, %rdi
	call	_ZNSt15_Rb_tree_header8_M_resetEv
.LBE2:
	.loc 2 177 5
	nop
	leave
	.cfi_def_cfa 7, 8
	ret
	.cfi_endproc
.LFE1540:
	.size	_ZNSt15_Rb_tree_headerC2Ev, .-_ZNSt15_Rb_tree_headerC2Ev
	.weak	_ZNSt15_Rb_tree_headerC1Ev
	.set	_ZNSt15_Rb_tree_headerC1Ev,_ZNSt15_Rb_tree_headerC2Ev
	.section	.text._ZNSt15_Rb_tree_header8_M_resetEv,"axG",@progbits,_ZNSt15_Rb_tree_header8_M_resetEv,comdat
	.align 2
	.weak	_ZNSt15_Rb_tree_header8_M_resetEv
	.type	_ZNSt15_Rb_tree_header8_M_resetEv, @function
_ZNSt15_Rb_tree_header8_M_resetEv:
.LFB1546:
	.loc 2 206 5
	.cfi_startproc
	endbr64
	pushq	%rbp
	.cfi_def_cfa_offset 16
	.cfi_offset 6, -16
	movq	%rsp, %rbp
	.cfi_def_cfa_register 6
	movq	%rdi, -8(%rbp)
	.loc 2 208 27
	movq	-8(%rbp), %rax
	movq	$0, 8(%rax)
	.loc 2 209 27
	movq	-8(%rbp), %rdx
	.loc 2 209 25
	movq	-8(%rbp), %rax
	movq	%rdx, 16(%rax)
	.loc 2 210 28
	movq	-8(%rbp), %rdx
	.loc 2 210 26
	movq	-8(%rbp), %rax
	movq	%rdx, 24(%rax)
	.loc 2 211 21
	movq	-8(%rbp), %rax
	movq	$0, 32(%rax)
	.loc 2 212 5
	nop
	popq	%rbp
	.cfi_def_cfa 7, 8
	ret
	.cfi_endproc
.LFE1546:
	.size	_ZNSt15_Rb_tree_header8_M_resetEv, .-_ZNSt15_Rb_tree_header8_M_resetEv
	.section	.rodata
	.type	_ZStL13allocator_arg, @object
	.size	_ZStL13allocator_arg, 1
_ZStL13allocator_arg:
	.zero	1
	.type	_ZStL6ignore, @object
	.size	_ZStL6ignore, 1
_ZStL6ignore:
	.zero	1
	.section	.text._ZNSt8_Rb_treeIPhSt4pairIKS0_P9func_stubESt10_Select1stIS5_ESt4lessIS0_ESaIS5_EE13_Rb_tree_implIS9_Lb1EED2Ev,"axG",@progbits,_ZNSt8_Rb_treeIPhSt4pairIKS0_P9func_stubESt10_Select1stIS5_ESt4lessIS0_ESaIS5_EE13_Rb_tree_implIS9_Lb1EED5Ev,comdat
	.align 2
	.weak	_ZNSt8_Rb_treeIPhSt4pairIKS0_P9func_stubESt10_Select1stIS5_ESt4lessIS0_ESaIS5_EE13_Rb_tree_implIS9_Lb1EED2Ev
	.type	_ZNSt8_Rb_treeIPhSt4pairIKS0_P9func_stubESt10_Select1stIS5_ESt4lessIS0_ESaIS5_EE13_Rb_tree_implIS9_Lb1EED2Ev, @function
_ZNSt8_Rb_treeIPhSt4pairIKS0_P9func_stubESt10_Select1stIS5_ESt4lessIS0_ESaIS5_EE13_Rb_tree_implIS9_Lb1EED2Ev:
.LFB2120:
	.loc 2 673 9
	.cfi_startproc
	endbr64
	pushq	%rbp
	.cfi_def_cfa_offset 16
	.cfi_offset 6, -16
	movq	%rsp, %rbp
	.cfi_def_cfa_register 6
	subq	$16, %rsp
	movq	%rdi, -8(%rbp)
.LBB3:
	.loc 2 673 9
	movq	-8(%rbp), %rax
	movq	%rax, %rdi
	call	_ZNSaISt13_Rb_tree_nodeISt4pairIKPhP9func_stubEEED2Ev
.LBE3:
	nop
	leave
	.cfi_def_cfa 7, 8
	ret
	.cfi_endproc
.LFE2120:
	.size	_ZNSt8_Rb_treeIPhSt4pairIKS0_P9func_stubESt10_Select1stIS5_ESt4lessIS0_ESaIS5_EE13_Rb_tree_implIS9_Lb1EED2Ev, .-_ZNSt8_Rb_treeIPhSt4pairIKS0_P9func_stubESt10_Select1stIS5_ESt4lessIS0_ESaIS5_EE13_Rb_tree_implIS9_Lb1EED2Ev
	.weak	_ZNSt8_Rb_treeIPhSt4pairIKS0_P9func_stubESt10_Select1stIS5_ESt4lessIS0_ESaIS5_EE13_Rb_tree_implIS9_Lb1EED1Ev
	.set	_ZNSt8_Rb_treeIPhSt4pairIKS0_P9func_stubESt10_Select1stIS5_ESt4lessIS0_ESaIS5_EE13_Rb_tree_implIS9_Lb1EED1Ev,_ZNSt8_Rb_treeIPhSt4pairIKS0_P9func_stubESt10_Select1stIS5_ESt4lessIS0_ESaIS5_EE13_Rb_tree_implIS9_Lb1EED2Ev
	.section	.text._ZNSt8_Rb_treeIPhSt4pairIKS0_P9func_stubESt10_Select1stIS5_ESt4lessIS0_ESaIS5_EEC2Ev,"axG",@progbits,_ZNSt8_Rb_treeIPhSt4pairIKS0_P9func_stubESt10_Select1stIS5_ESt4lessIS0_ESaIS5_EEC5Ev,comdat
	.align 2
	.weak	_ZNSt8_Rb_treeIPhSt4pairIKS0_P9func_stubESt10_Select1stIS5_ESt4lessIS0_ESaIS5_EEC2Ev
	.type	_ZNSt8_Rb_treeIPhSt4pairIKS0_P9func_stubESt10_Select1stIS5_ESt4lessIS0_ESaIS5_EEC2Ev, @function
_ZNSt8_Rb_treeIPhSt4pairIKS0_P9func_stubESt10_Select1stIS5_ESt4lessIS0_ESaIS5_EEC2Ev:
.LFB2122:
	.loc 2 944 7
	.cfi_startproc
	endbr64
	pushq	%rbp
	.cfi_def_cfa_offset 16
	.cfi_offset 6, -16
	movq	%rsp, %rbp
	.cfi_def_cfa_register 6
	subq	$16, %rsp
	movq	%rdi, -8(%rbp)
.LBB4:
	.loc 2 944 7
	movq	-8(%rbp), %rax
	movq	%rax, %rdi
	call	_ZNSt8_Rb_treeIPhSt4pairIKS0_P9func_stubESt10_Select1stIS5_ESt4lessIS0_ESaIS5_EE13_Rb_tree_implIS9_Lb1EEC1Ev
.LBE4:
	nop
	leave
	.cfi_def_cfa 7, 8
	ret
	.cfi_endproc
.LFE2122:
	.size	_ZNSt8_Rb_treeIPhSt4pairIKS0_P9func_stubESt10_Select1stIS5_ESt4lessIS0_ESaIS5_EEC2Ev, .-_ZNSt8_Rb_treeIPhSt4pairIKS0_P9func_stubESt10_Select1stIS5_ESt4lessIS0_ESaIS5_EEC2Ev
	.weak	_ZNSt8_Rb_treeIPhSt4pairIKS0_P9func_stubESt10_Select1stIS5_ESt4lessIS0_ESaIS5_EEC1Ev
	.set	_ZNSt8_Rb_treeIPhSt4pairIKS0_P9func_stubESt10_Select1stIS5_ESt4lessIS0_ESaIS5_EEC1Ev,_ZNSt8_Rb_treeIPhSt4pairIKS0_P9func_stubESt10_Select1stIS5_ESt4lessIS0_ESaIS5_EEC2Ev
	.section	.text._ZNSt3mapIPhP9func_stubSt4lessIS0_ESaISt4pairIKS0_S2_EEEC2Ev,"axG",@progbits,_ZNSt3mapIPhP9func_stubSt4lessIS0_ESaISt4pairIKS0_S2_EEEC5Ev,comdat
	.align 2
	.weak	_ZNSt3mapIPhP9func_stubSt4lessIS0_ESaISt4pairIKS0_S2_EEEC2Ev
	.type	_ZNSt3mapIPhP9func_stubSt4lessIS0_ESaISt4pairIKS0_S2_EEEC2Ev, @function
_ZNSt3mapIPhP9func_stubSt4lessIS0_ESaISt4pairIKS0_S2_EEEC2Ev:
.LFB2124:
	.file 3 "/usr/include/c++/9/bits/stl_map.h"
	.loc 3 183 7
	.cfi_startproc
	endbr64
	pushq	%rbp
	.cfi_def_cfa_offset 16
	.cfi_offset 6, -16
	movq	%rsp, %rbp
	.cfi_def_cfa_register 6
	subq	$16, %rsp
	movq	%rdi, -8(%rbp)
.LBB5:
	.loc 3 183 7
	movq	-8(%rbp), %rax
	movq	%rax, %rdi
	call	_ZNSt8_Rb_treeIPhSt4pairIKS0_P9func_stubESt10_Select1stIS5_ESt4lessIS0_ESaIS5_EEC1Ev
.LBE5:
	nop
	leave
	.cfi_def_cfa 7, 8
	ret
	.cfi_endproc
.LFE2124:
	.size	_ZNSt3mapIPhP9func_stubSt4lessIS0_ESaISt4pairIKS0_S2_EEEC2Ev, .-_ZNSt3mapIPhP9func_stubSt4lessIS0_ESaISt4pairIKS0_S2_EEEC2Ev
	.weak	_ZNSt3mapIPhP9func_stubSt4lessIS0_ESaISt4pairIKS0_S2_EEEC1Ev
	.set	_ZNSt3mapIPhP9func_stubSt4lessIS0_ESaISt4pairIKS0_S2_EEEC1Ev,_ZNSt3mapIPhP9func_stubSt4lessIS0_ESaISt4pairIKS0_S2_EEEC2Ev
	.section	.text._ZNSt3mapIPhP9func_stubSt4lessIS0_ESaISt4pairIKS0_S2_EEED2Ev,"axG",@progbits,_ZNSt3mapIPhP9func_stubSt4lessIS0_ESaISt4pairIKS0_S2_EEED5Ev,comdat
	.align 2
	.weak	_ZNSt3mapIPhP9func_stubSt4lessIS0_ESaISt4pairIKS0_S2_EEED2Ev
	.type	_ZNSt3mapIPhP9func_stubSt4lessIS0_ESaISt4pairIKS0_S2_EEED2Ev, @function
_ZNSt3mapIPhP9func_stubSt4lessIS0_ESaISt4pairIKS0_S2_EEED2Ev:
.LFB2127:
	.loc 3 300 7
	.cfi_startproc
	endbr64
	pushq	%rbp
	.cfi_def_cfa_offset 16
	.cfi_offset 6, -16
	movq	%rsp, %rbp
	.cfi_def_cfa_register 6
	subq	$16, %rsp
	movq	%rdi, -8(%rbp)
.LBB6:
	.loc 3 300 7
	movq	-8(%rbp), %rax
	movq	%rax, %rdi
	call	_ZNSt8_Rb_treeIPhSt4pairIKS0_P9func_stubESt10_Select1stIS5_ESt4lessIS0_ESaIS5_EED1Ev
.LBE6:
	nop
	leave
	.cfi_def_cfa 7, 8
	ret
	.cfi_endproc
.LFE2127:
	.size	_ZNSt3mapIPhP9func_stubSt4lessIS0_ESaISt4pairIKS0_S2_EEED2Ev, .-_ZNSt3mapIPhP9func_stubSt4lessIS0_ESaISt4pairIKS0_S2_EEED2Ev
	.weak	_ZNSt3mapIPhP9func_stubSt4lessIS0_ESaISt4pairIKS0_S2_EEED1Ev
	.set	_ZNSt3mapIPhP9func_stubSt4lessIS0_ESaISt4pairIKS0_S2_EEED1Ev,_ZNSt3mapIPhP9func_stubSt4lessIS0_ESaISt4pairIKS0_S2_EEED2Ev
	.section	.text._ZN4StubC2Ev,"axG",@progbits,_ZN4StubC5Ev,comdat
	.align 2
	.weak	_ZN4StubC2Ev
	.type	_ZN4StubC2Ev, @function
_ZN4StubC2Ev:
.LFB2129:
	.file 4 "./cpp/stub.h"
	.loc 4 311 5
	.cfi_startproc
	endbr64
	pushq	%rbp
	.cfi_def_cfa_offset 16
	.cfi_offset 6, -16
	movq	%rsp, %rbp
	.cfi_def_cfa_register 6
	subq	$16, %rsp
	movq	%rdi, -8(%rbp)
.LBB7:
	.loc 4 312 5
	movq	-8(%rbp), %rax
	addq	$8, %rax
	movq	%rax, %rdi
	call	_ZNSt3mapIPhP9func_stubSt4lessIS0_ESaISt4pairIKS0_S2_EEEC1Ev
	.loc 4 318 29
	movl	$30, %edi
	call	sysconf@PLT
	.loc 4 318 20
	movq	-8(%rbp), %rdx
	movq	%rax, (%rdx)
	.loc 4 321 13
	movq	-8(%rbp), %rax
	movq	(%rax), %rax
	.loc 4 321 9
	testq	%rax, %rax
	jns	.L11
	.loc 4 323 24
	movq	-8(%rbp), %rax
	movq	$4096, (%rax)
.L11:
.LBE7:
	.loc 4 325 5
	nop
	leave
	.cfi_def_cfa 7, 8
	ret
	.cfi_endproc
.LFE2129:
	.size	_ZN4StubC2Ev, .-_ZN4StubC2Ev
	.weak	_ZN4StubC1Ev
	.set	_ZN4StubC1Ev,_ZN4StubC2Ev
	.section	.text._ZN4StubD2Ev,"axG",@progbits,_ZN4StubD5Ev,comdat
	.align 2
	.weak	_ZN4StubD2Ev
	.type	_ZN4StubD2Ev, @function
_ZN4StubD2Ev:
.LFB2132:
	.loc 4 326 5
	.cfi_startproc
	.cfi_personality 0x9b,DW.ref.__gxx_personality_v0
	.cfi_lsda 0x1b,.LLSDA2132
	endbr64
	pushq	%rbp
	.cfi_def_cfa_offset 16
	.cfi_offset 6, -16
	movq	%rsp, %rbp
	.cfi_def_cfa_register 6
	subq	$16, %rsp
	movq	%rdi, -8(%rbp)
.LBB8:
	.loc 4 328 14
	movq	-8(%rbp), %rax
	movq	%rax, %rdi
	call	_ZN4Stub5clearEv
	.loc 4 327 5
	movq	-8(%rbp), %rax
	addq	$8, %rax
	movq	%rax, %rdi
	call	_ZNSt3mapIPhP9func_stubSt4lessIS0_ESaISt4pairIKS0_S2_EEED1Ev
.LBE8:
	.loc 4 329 5
	nop
	leave
	.cfi_def_cfa 7, 8
	ret
	.cfi_endproc
.LFE2132:
	.globl	__gxx_personality_v0
	.section	.gcc_except_table._ZN4StubD2Ev,"aG",@progbits,_ZN4StubD5Ev,comdat
.LLSDA2132:
	.byte	0xff
	.byte	0xff
	.byte	0x1
	.uleb128 .LLSDACSE2132-.LLSDACSB2132
.LLSDACSB2132:
.LLSDACSE2132:
	.section	.text._ZN4StubD2Ev,"axG",@progbits,_ZN4StubD5Ev,comdat
	.size	_ZN4StubD2Ev, .-_ZN4StubD2Ev
	.weak	_ZN4StubD1Ev
	.set	_ZN4StubD1Ev,_ZN4StubD2Ev
	.section	.text._ZN4Stub5clearEv,"axG",@progbits,_ZN4Stub5clearEv,comdat
	.align 2
	.weak	_ZN4Stub5clearEv
	.type	_ZN4Stub5clearEv, @function
_ZN4Stub5clearEv:
.LFB2134:
	.loc 4 330 10
	.cfi_startproc
	endbr64
	pushq	%rbp
	.cfi_def_cfa_offset 16
	.cfi_offset 6, -16
	movq	%rsp, %rbp
	.cfi_def_cfa_register 6
	pushq	%rbx
	subq	$56, %rsp
	.cfi_offset 3, -24
	movq	%rdi, -56(%rbp)
	.loc 4 330 10
	movq	%fs:40, %rax
	movq	%rax, -24(%rbp)
	xorl	%eax, %eax
	.loc 4 332 55
	leaq	-48(%rbp), %rax
	movq	%rax, %rdi
	call	_ZNSt17_Rb_tree_iteratorISt4pairIKPhP9func_stubEEC1Ev
	.loc 4 334 33
	movq	-56(%rbp), %rax
	addq	$8, %rax
	movq	%rax, %rdi
	call	_ZNSt3mapIPhP9func_stubSt4lessIS0_ESaISt4pairIKS0_S2_EEE5beginEv
	movq	%rax, -48(%rbp)
.L19:
	.loc 4 334 57 discriminator 1
	movq	-56(%rbp), %rax
	addq	$8, %rax
	movq	%rax, %rdi
	call	_ZNSt3mapIPhP9func_stubSt4lessIS0_ESaISt4pairIKS0_S2_EEE3endEv
	movq	%rax, -40(%rbp)
	.loc 4 334 41 discriminator 1
	leaq	-40(%rbp), %rdx
	leaq	-48(%rbp), %rax
	movq	%rdx, %rsi
	movq	%rax, %rdi
	call	_ZStneRKSt17_Rb_tree_iteratorISt4pairIKPhP9func_stubEES8_
	testb	%al, %al
	je	.L22
	.loc 4 336 25
	leaq	-48(%rbp), %rax
	movq	%rax, %rdi
	call	_ZNKSt17_Rb_tree_iteratorISt4pairIKPhP9func_stubEEptEv
	.loc 4 336 19
	movq	8(%rax), %rax
	movq	%rax, -32(%rbp)
	.loc 4 341 50
	movq	-56(%rbp), %rax
	movq	(%rax), %rax
	.loc 4 341 61
	addq	%rax, %rax
	.loc 4 341 30
	movq	%rax, %rbx
	movq	-32(%rbp), %rax
	movq	(%rax), %rdx
	movq	-56(%rbp), %rax
	movq	%rdx, %rsi
	movq	%rax, %rdi
	call	_ZN4Stub6pageofEPh
	movl	$7, %edx
	movq	%rbx, %rsi
	movq	%rax, %rdi
	call	mprotect@PLT
	.loc 4 341 19
	testl	%eax, %eax
	sete	%al
	.loc 4 341 13
	testb	%al, %al
	je	.L15
	.loc 4 345 27
	movq	-32(%rbp), %rax
	movzbl	21(%rax), %eax
	.loc 4 345 17
	testb	%al, %al
	je	.L16
	.loc 4 347 51
	movq	-32(%rbp), %rax
	leaq	8(%rax), %rcx
	.loc 4 347 40
	movq	-32(%rbp), %rax
	movq	(%rax), %rax
	.loc 4 347 32
	movl	$13, %edx
	movq	%rcx, %rsi
	movq	%rax, %rdi
	call	memcpy@PLT
	jmp	.L17
.L16:
	.loc 4 351 51
	movq	-32(%rbp), %rax
	leaq	8(%rax), %rcx
	.loc 4 351 40
	movq	-32(%rbp), %rax
	movq	(%rax), %rax
	.loc 4 351 32
	movl	$5, %edx
	movq	%rcx, %rsi
	movq	%rax, %rdi
	call	memcpy@PLT
.L17:
	.loc 4 359 45
	movq	-56(%rbp), %rax
	movq	(%rax), %rax
	.loc 4 359 56
	addq	%rax, %rax
	.loc 4 359 25
	movq	%rax, %rbx
	movq	-32(%rbp), %rax
	movq	(%rax), %rdx
	movq	-56(%rbp), %rax
	movq	%rdx, %rsi
	movq	%rax, %rdi
	call	_ZN4Stub6pageofEPh
	movl	$5, %edx
	movq	%rbx, %rsi
	movq	%rax, %rdi
	call	mprotect@PLT
.L15:
	.loc 4 363 17
	leaq	-48(%rbp), %rax
	movq	%rax, %rdi
	call	_ZNKSt17_Rb_tree_iteratorISt4pairIKPhP9func_stubEEptEv
	.loc 4 363 27
	movq	$0, 8(%rax)
	.loc 4 364 20
	movq	-32(%rbp), %rax
	.loc 4 364 25
	testq	%rax, %rax
	je	.L18
	.loc 4 364 20 discriminator 1
	movl	$24, %esi
	movq	%rax, %rdi
	call	_ZdlPvm@PLT
.L18:
	.loc 4 334 64 discriminator 2
	leaq	-48(%rbp), %rax
	movl	$0, %esi
	movq	%rax, %rdi
	call	_ZNSt17_Rb_tree_iteratorISt4pairIKPhP9func_stubEEppEi
	.loc 4 334 9 discriminator 2
	jmp	.L19
.L22:
	.loc 4 367 9
	nop
	.loc 4 368 5
	movq	-24(%rbp), %rax
	xorq	%fs:40, %rax
	je	.L21
	call	__stack_chk_fail@PLT
.L21:
	addq	$56, %rsp
	popq	%rbx
	popq	%rbp
	.cfi_def_cfa 7, 8
	ret
	.cfi_endproc
.LFE2134:
	.size	_ZN4Stub5clearEv, .-_ZN4Stub5clearEv
	.section	.text._ZN4Stub6pageofEPh,"axG",@progbits,_ZN4Stub6pageofEPh,comdat
	.align 2
	.weak	_ZN4Stub6pageofEPh
	.type	_ZN4Stub6pageofEPh, @function
_ZN4Stub6pageofEPh:
.LFB2141:
	.loc 4 475 11
	.cfi_startproc
	endbr64
	pushq	%rbp
	.cfi_def_cfa_offset 16
	.cfi_offset 6, -16
	movq	%rsp, %rbp
	.cfi_def_cfa_register 6
	movq	%rdi, -8(%rbp)
	movq	%rsi, -16(%rbp)
	.loc 4 480 49
	movq	-8(%rbp), %rax
	movq	(%rax), %rax
	.loc 4 480 47
	negq	%rax
	movq	%rax, %rdx
	.loc 4 480 45
	movq	-16(%rbp), %rax
	andq	%rdx, %rax
	.loc 4 482 5
	popq	%rbp
	.cfi_def_cfa 7, 8
	ret
	.cfi_endproc
.LFE2141:
	.size	_ZN4Stub6pageofEPh, .-_ZN4Stub6pageofEPh
	.section	.text._ZN4Stub10distanceofEPhS0_,"axG",@progbits,_ZN4Stub10distanceofEPhS0_,comdat
	.align 2
	.weak	_ZN4Stub10distanceofEPhS0_
	.type	_ZN4Stub10distanceofEPhS0_, @function
_ZN4Stub10distanceofEPhS0_:
.LFB2143:
	.loc 4 496 10
	.cfi_startproc
	endbr64
	pushq	%rbp
	.cfi_def_cfa_offset 16
	.cfi_offset 6, -16
	movq	%rsp, %rbp
	.cfi_def_cfa_register 6
	movq	%rdi, -24(%rbp)
	movq	%rsi, -32(%rbp)
	movq	%rdx, -40(%rbp)
	.loc 4 498 49
	movq	-40(%rbp), %rax
	cmpq	-32(%rbp), %rax
	jb	.L26
	.loc 4 498 49 is_stmt 0 discriminator 1
	movq	-40(%rbp), %rax
	subq	-32(%rbp), %rax
	jmp	.L27
.L26:
	.loc 4 498 49 discriminator 2
	movq	-32(%rbp), %rax
	subq	-40(%rbp), %rax
.L27:
	.loc 4 498 24 is_stmt 1 discriminator 4
	movq	%rax, -8(%rbp)
	.loc 4 499 42 discriminator 4
	movq	-8(%rbp), %rax
	sarq	$31, %rax
	.loc 4 499 9 discriminator 4
	cmpq	$1, %rax
	jle	.L28
	.loc 4 501 20
	movl	$1, %eax
	jmp	.L29
.L28:
	.loc 4 503 16
	movl	$0, %eax
.L29:
	.loc 4 504 5
	popq	%rbp
	.cfi_def_cfa 7, 8
	ret
	.cfi_endproc
.LFE2143:
	.size	_ZN4Stub10distanceofEPhS0_, .-_ZN4Stub10distanceofEPhS0_
	.section	.rodata
.LC0:
	.string	"I am A_constructor"
	.section	.text._ZN1AC2Ev,"axG",@progbits,_ZN1AC5Ev,comdat
	.align 2
	.weak	_ZN1AC2Ev
	.type	_ZN1AC2Ev, @function
_ZN1AC2Ev:
.LFB2146:
	.file 5 "./cpp/get-func-address.cpp"
	.loc 5 26 5
	.cfi_startproc
	endbr64
	pushq	%rbp
	.cfi_def_cfa_offset 16
	.cfi_offset 6, -16
	movq	%rsp, %rbp
	.cfi_def_cfa_register 6
	subq	$16, %rsp
	movq	%rdi, -8(%rbp)
.LBB9:
	.loc 5 26 17
	leaq	.LC0(%rip), %rsi
	leaq	_ZSt4cout(%rip), %rdi
	call	_ZStlsISt11char_traitsIcEERSt13basic_ostreamIcT_ES5_PKc@PLT
	movq	%rax, %rdx
	.loc 5 26 41
	movq	_ZSt4endlIcSt11char_traitsIcEERSt13basic_ostreamIT_T0_ES6_@GOTPCREL(%rip), %rax
	movq	%rax, %rsi
	movq	%rdx, %rdi
	call	_ZNSolsEPFRSoS_E@PLT
.LBE9:
	.loc 5 26 46
	nop
	leave
	.cfi_def_cfa 7, 8
	ret
	.cfi_endproc
.LFE2146:
	.size	_ZN1AC2Ev, .-_ZN1AC2Ev
	.weak	_ZN1AC1Ev
	.set	_ZN1AC1Ev,_ZN1AC2Ev
	.section	.rodata
.LC1:
	.string	"I am B_constructor"
	.section	.text._ZN1BC2Ev,"axG",@progbits,_ZN1BC5Ev,comdat
	.align 2
	.weak	_ZN1BC2Ev
	.type	_ZN1BC2Ev, @function
_ZN1BC2Ev:
.LFB2149:
	.loc 5 31 5
	.cfi_startproc
	endbr64
	pushq	%rbp
	.cfi_def_cfa_offset 16
	.cfi_offset 6, -16
	movq	%rsp, %rbp
	.cfi_def_cfa_register 6
	subq	$16, %rsp
	movq	%rdi, -8(%rbp)
.LBB10:
	.loc 5 31 17
	leaq	.LC1(%rip), %rsi
	leaq	_ZSt4cout(%rip), %rdi
	call	_ZStlsISt11char_traitsIcEERSt13basic_ostreamIcT_ES5_PKc@PLT
	movq	%rax, %rdx
	.loc 5 31 41
	movq	_ZSt4endlIcSt11char_traitsIcEERSt13basic_ostreamIT_T0_ES6_@GOTPCREL(%rip), %rax
	movq	%rax, %rsi
	movq	%rdx, %rdi
	call	_ZNSolsEPFRSoS_E@PLT
.LBE10:
	.loc 5 31 46
	nop
	leave
	.cfi_def_cfa 7, 8
	ret
	.cfi_endproc
.LFE2149:
	.size	_ZN1BC2Ev, .-_ZN1BC2Ev
	.weak	_ZN1BC1Ev
	.set	_ZN1BC1Ev,_ZN1BC2Ev
	.text
	.globl	main
	.type	main, @function
main:
.LFB2151:
	.loc 5 35 1
	.cfi_startproc
	.cfi_personality 0x9b,DW.ref.__gxx_personality_v0
	.cfi_lsda 0x1b,.LLSDA2151
	endbr64
	pushq	%rbp
	.cfi_def_cfa_offset 16
	.cfi_offset 6, -16
	movq	%rsp, %rbp
	.cfi_def_cfa_register 6
	pushq	%rbx
	subq	$104, %rsp
	.cfi_offset 3, -24
	.loc 5 35 1
	movq	%fs:40, %rax
	movq	%rax, -24(%rbp)
	xorl	%eax, %eax
	.loc 5 36 10
	leaq	-80(%rbp), %rax
	movq	%rax, %rdi
	call	_ZN4StubC1Ev
	.loc 5 37 31
	movl	$1, %edi
.LEHB0:
	call	_Z13get_ctor_addrI1AEPvb
	movq	%rax, -96(%rbp)
	.loc 5 38 31
	movl	$1, %edi
	call	_Z13get_ctor_addrI1BEPvb
	.loc 5 38 31 is_stmt 0 discriminator 1
	movq	%rax, -88(%rbp)
	.loc 5 39 13 is_stmt 1 discriminator 1
	movq	-88(%rbp), %rdx
	movq	-96(%rbp), %rcx
	leaq	-80(%rbp), %rax
	movq	%rcx, %rsi
	movq	%rax, %rdi
	call	_ZN4Stub3setIPvS1_EEvT_T0_
	.loc 5 40 7
	leaq	-97(%rbp), %rax
	movq	%rax, %rdi
	call	_ZN1AC1Ev
.LEHE0:
	.loc 5 41 12
	movl	$0, %ebx
	.loc 5 36 10
	leaq	-80(%rbp), %rax
	movq	%rax, %rdi
	call	_ZN4StubD1Ev
	movl	%ebx, %eax
	.loc 5 42 1
	movq	-24(%rbp), %rsi
	xorq	%fs:40, %rsi
	je	.L35
	jmp	.L37
.L36:
	endbr64
	movq	%rax, %rbx
	.loc 5 36 10
	leaq	-80(%rbp), %rax
	movq	%rax, %rdi
	call	_ZN4StubD1Ev
	movq	%rbx, %rax
	movq	%rax, %rdi
.LEHB1:
	call	_Unwind_Resume@PLT
.LEHE1:
.L37:
	.loc 5 42 1
	call	__stack_chk_fail@PLT
.L35:
	addq	$104, %rsp
	popq	%rbx
	popq	%rbp
	.cfi_def_cfa 7, 8
	ret
	.cfi_endproc
.LFE2151:
	.section	.gcc_except_table,"a",@progbits
.LLSDA2151:
	.byte	0xff
	.byte	0xff
	.byte	0x1
	.uleb128 .LLSDACSE2151-.LLSDACSB2151
.LLSDACSB2151:
	.uleb128 .LEHB0-.LFB2151
	.uleb128 .LEHE0-.LEHB0
	.uleb128 .L36-.LFB2151
	.uleb128 0
	.uleb128 .LEHB1-.LFB2151
	.uleb128 .LEHE1-.LEHB1
	.uleb128 0
	.uleb128 0
.LLSDACSE2151:
	.text
	.size	main, .-main
	.section	.text._ZNSt8_Rb_treeIPhSt4pairIKS0_P9func_stubESt10_Select1stIS5_ESt4lessIS0_ESaIS5_EE13_Rb_tree_implIS9_Lb1EEC2Ev,"axG",@progbits,_ZNSt8_Rb_treeIPhSt4pairIKS0_P9func_stubESt10_Select1stIS5_ESt4lessIS0_ESaIS5_EE13_Rb_tree_implIS9_Lb1EEC5Ev,comdat
	.align 2
	.weak	_ZNSt8_Rb_treeIPhSt4pairIKS0_P9func_stubESt10_Select1stIS5_ESt4lessIS0_ESaIS5_EE13_Rb_tree_implIS9_Lb1EEC2Ev
	.type	_ZNSt8_Rb_treeIPhSt4pairIKS0_P9func_stubESt10_Select1stIS5_ESt4lessIS0_ESaIS5_EE13_Rb_tree_implIS9_Lb1EEC2Ev, @function
_ZNSt8_Rb_treeIPhSt4pairIKS0_P9func_stubESt10_Select1stIS5_ESt4lessIS0_ESaIS5_EE13_Rb_tree_implIS9_Lb1EEC2Ev:
.LFB2389:
	.loc 2 680 4
	.cfi_startproc
	endbr64
	pushq	%rbp
	.cfi_def_cfa_offset 16
	.cfi_offset 6, -16
	movq	%rsp, %rbp
	.cfi_def_cfa_register 6
	subq	$16, %rsp
	movq	%rdi, -8(%rbp)
.LBB11:
	.loc 2 684 22
	movq	-8(%rbp), %rax
	movq	%rax, %rdi
	call	_ZNSaISt13_Rb_tree_nodeISt4pairIKPhP9func_stubEEEC2Ev
	movq	-8(%rbp), %rax
	movq	%rax, %rdi
	call	_ZNSt20_Rb_tree_key_compareISt4lessIPhEEC2Ev
	movq	-8(%rbp), %rax
	addq	$8, %rax
	movq	%rax, %rdi
	call	_ZNSt15_Rb_tree_headerC2Ev
.LBE11:
	.loc 2 685 6
	nop
	leave
	.cfi_def_cfa 7, 8
	ret
	.cfi_endproc
.LFE2389:
	.size	_ZNSt8_Rb_treeIPhSt4pairIKS0_P9func_stubESt10_Select1stIS5_ESt4lessIS0_ESaIS5_EE13_Rb_tree_implIS9_Lb1EEC2Ev, .-_ZNSt8_Rb_treeIPhSt4pairIKS0_P9func_stubESt10_Select1stIS5_ESt4lessIS0_ESaIS5_EE13_Rb_tree_implIS9_Lb1EEC2Ev
	.weak	_ZNSt8_Rb_treeIPhSt4pairIKS0_P9func_stubESt10_Select1stIS5_ESt4lessIS0_ESaIS5_EE13_Rb_tree_implIS9_Lb1EEC1Ev
	.set	_ZNSt8_Rb_treeIPhSt4pairIKS0_P9func_stubESt10_Select1stIS5_ESt4lessIS0_ESaIS5_EE13_Rb_tree_implIS9_Lb1EEC1Ev,_ZNSt8_Rb_treeIPhSt4pairIKS0_P9func_stubESt10_Select1stIS5_ESt4lessIS0_ESaIS5_EE13_Rb_tree_implIS9_Lb1EEC2Ev
	.section	.text._ZNSaISt13_Rb_tree_nodeISt4pairIKPhP9func_stubEEED2Ev,"axG",@progbits,_ZNSaISt13_Rb_tree_nodeISt4pairIKPhP9func_stubEEED5Ev,comdat
	.align 2
	.weak	_ZNSaISt13_Rb_tree_nodeISt4pairIKPhP9func_stubEEED2Ev
	.type	_ZNSaISt13_Rb_tree_nodeISt4pairIKPhP9func_stubEEED2Ev, @function
_ZNSaISt13_Rb_tree_nodeISt4pairIKPhP9func_stubEEED2Ev:
.LFB2392:
	.file 6 "/usr/include/c++/9/bits/allocator.h"
	.loc 6 152 7
	.cfi_startproc
	endbr64
	pushq	%rbp
	.cfi_def_cfa_offset 16
	.cfi_offset 6, -16
	movq	%rsp, %rbp
	.cfi_def_cfa_register 6
	subq	$16, %rsp
	movq	%rdi, -8(%rbp)
.LBB12:
	.loc 6 152 39
	movq	-8(%rbp), %rax
	movq	%rax, %rdi
	call	_ZN9__gnu_cxx13new_allocatorISt13_Rb_tree_nodeISt4pairIKPhP9func_stubEEED2Ev
.LBE12:
	nop
	leave
	.cfi_def_cfa 7, 8
	ret
	.cfi_endproc
.LFE2392:
	.size	_ZNSaISt13_Rb_tree_nodeISt4pairIKPhP9func_stubEEED2Ev, .-_ZNSaISt13_Rb_tree_nodeISt4pairIKPhP9func_stubEEED2Ev
	.weak	_ZNSaISt13_Rb_tree_nodeISt4pairIKPhP9func_stubEEED1Ev
	.set	_ZNSaISt13_Rb_tree_nodeISt4pairIKPhP9func_stubEEED1Ev,_ZNSaISt13_Rb_tree_nodeISt4pairIKPhP9func_stubEEED2Ev
	.section	.text._ZNSt8_Rb_treeIPhSt4pairIKS0_P9func_stubESt10_Select1stIS5_ESt4lessIS0_ESaIS5_EED2Ev,"axG",@progbits,_ZNSt8_Rb_treeIPhSt4pairIKS0_P9func_stubESt10_Select1stIS5_ESt4lessIS0_ESaIS5_EED5Ev,comdat
	.align 2
	.weak	_ZNSt8_Rb_treeIPhSt4pairIKS0_P9func_stubESt10_Select1stIS5_ESt4lessIS0_ESaIS5_EED2Ev
	.type	_ZNSt8_Rb_treeIPhSt4pairIKS0_P9func_stubESt10_Select1stIS5_ESt4lessIS0_ESaIS5_EED2Ev, @function
_ZNSt8_Rb_treeIPhSt4pairIKS0_P9func_stubESt10_Select1stIS5_ESt4lessIS0_ESaIS5_EED2Ev:
.LFB2395:
	.loc 2 999 7
	.cfi_startproc
	.cfi_personality 0x9b,DW.ref.__gxx_personality_v0
	.cfi_lsda 0x1b,.LLSDA2395
	endbr64
	pushq	%rbp
	.cfi_def_cfa_offset 16
	.cfi_offset 6, -16
	movq	%rsp, %rbp
	.cfi_def_cfa_register 6
	subq	$16, %rsp
	movq	%rdi, -8(%rbp)
.LBB13:
	.loc 2 1000 9
	movq	-8(%rbp), %rax
	movq	%rax, %rdi
	call	_ZNSt8_Rb_treeIPhSt4pairIKS0_P9func_stubESt10_Select1stIS5_ESt4lessIS0_ESaIS5_EE8_M_beginEv
	movq	%rax, %rdx
	movq	-8(%rbp), %rax
	movq	%rdx, %rsi
	movq	%rax, %rdi
	call	_ZNSt8_Rb_treeIPhSt4pairIKS0_P9func_stubESt10_Select1stIS5_ESt4lessIS0_ESaIS5_EE8_M_eraseEPSt13_Rb_tree_nodeIS5_E
	.loc 2 1000 31
	movq	-8(%rbp), %rax
	movq	%rax, %rdi
	call	_ZNSt8_Rb_treeIPhSt4pairIKS0_P9func_stubESt10_Select1stIS5_ESt4lessIS0_ESaIS5_EE13_Rb_tree_implIS9_Lb1EED1Ev
.LBE13:
	nop
	leave
	.cfi_def_cfa 7, 8
	ret
	.cfi_endproc
.LFE2395:
	.section	.gcc_except_table
.LLSDA2395:
	.byte	0xff
	.byte	0xff
	.byte	0x1
	.uleb128 .LLSDACSE2395-.LLSDACSB2395
.LLSDACSB2395:
.LLSDACSE2395:
	.section	.text._ZNSt8_Rb_treeIPhSt4pairIKS0_P9func_stubESt10_Select1stIS5_ESt4lessIS0_ESaIS5_EED2Ev,"axG",@progbits,_ZNSt8_Rb_treeIPhSt4pairIKS0_P9func_stubESt10_Select1stIS5_ESt4lessIS0_ESaIS5_EED5Ev,comdat
	.size	_ZNSt8_Rb_treeIPhSt4pairIKS0_P9func_stubESt10_Select1stIS5_ESt4lessIS0_ESaIS5_EED2Ev, .-_ZNSt8_Rb_treeIPhSt4pairIKS0_P9func_stubESt10_Select1stIS5_ESt4lessIS0_ESaIS5_EED2Ev
	.weak	_ZNSt8_Rb_treeIPhSt4pairIKS0_P9func_stubESt10_Select1stIS5_ESt4lessIS0_ESaIS5_EED1Ev
	.set	_ZNSt8_Rb_treeIPhSt4pairIKS0_P9func_stubESt10_Select1stIS5_ESt4lessIS0_ESaIS5_EED1Ev,_ZNSt8_Rb_treeIPhSt4pairIKS0_P9func_stubESt10_Select1stIS5_ESt4lessIS0_ESaIS5_EED2Ev
	.section	.text._ZNSt17_Rb_tree_iteratorISt4pairIKPhP9func_stubEEC2Ev,"axG",@progbits,_ZNSt17_Rb_tree_iteratorISt4pairIKPhP9func_stubEEC5Ev,comdat
	.align 2
	.weak	_ZNSt17_Rb_tree_iteratorISt4pairIKPhP9func_stubEEC2Ev
	.type	_ZNSt17_Rb_tree_iteratorISt4pairIKPhP9func_stubEEC2Ev, @function
_ZNSt17_Rb_tree_iteratorISt4pairIKPhP9func_stubEEC2Ev:
.LFB2398:
	.loc 2 269 7
	.cfi_startproc
	endbr64
	pushq	%rbp
	.cfi_def_cfa_offset 16
	.cfi_offset 6, -16
	movq	%rsp, %rbp
	.cfi_def_cfa_register 6
	movq	%rdi, -8(%rbp)
.LBB14:
	.loc 2 270 17
	movq	-8(%rbp), %rax
	movq	$0, (%rax)
.LBE14:
	.loc 2 270 21
	nop
	popq	%rbp
	.cfi_def_cfa 7, 8
	ret
	.cfi_endproc
.LFE2398:
	.size	_ZNSt17_Rb_tree_iteratorISt4pairIKPhP9func_stubEEC2Ev, .-_ZNSt17_Rb_tree_iteratorISt4pairIKPhP9func_stubEEC2Ev
	.weak	_ZNSt17_Rb_tree_iteratorISt4pairIKPhP9func_stubEEC1Ev
	.set	_ZNSt17_Rb_tree_iteratorISt4pairIKPhP9func_stubEEC1Ev,_ZNSt17_Rb_tree_iteratorISt4pairIKPhP9func_stubEEC2Ev
	.section	.text._ZNSt3mapIPhP9func_stubSt4lessIS0_ESaISt4pairIKS0_S2_EEE5beginEv,"axG",@progbits,_ZNSt3mapIPhP9func_stubSt4lessIS0_ESaISt4pairIKS0_S2_EEE5beginEv,comdat
	.align 2
	.weak	_ZNSt3mapIPhP9func_stubSt4lessIS0_ESaISt4pairIKS0_S2_EEE5beginEv
	.type	_ZNSt3mapIPhP9func_stubSt4lessIS0_ESaISt4pairIKS0_S2_EEE5beginEv, @function
_ZNSt3mapIPhP9func_stubSt4lessIS0_ESaISt4pairIKS0_S2_EEE5beginEv:
.LFB2400:
	.loc 3 354 7
	.cfi_startproc
	endbr64
	pushq	%rbp
	.cfi_def_cfa_offset 16
	.cfi_offset 6, -16
	movq	%rsp, %rbp
	.cfi_def_cfa_register 6
	subq	$16, %rsp
	movq	%rdi, -8(%rbp)
	.loc 3 355 27
	movq	-8(%rbp), %rax
	movq	%rax, %rdi
	call	_ZNSt8_Rb_treeIPhSt4pairIKS0_P9func_stubESt10_Select1stIS5_ESt4lessIS0_ESaIS5_EE5beginEv
	.loc 3 355 30
	leave
	.cfi_def_cfa 7, 8
	ret
	.cfi_endproc
.LFE2400:
	.size	_ZNSt3mapIPhP9func_stubSt4lessIS0_ESaISt4pairIKS0_S2_EEE5beginEv, .-_ZNSt3mapIPhP9func_stubSt4lessIS0_ESaISt4pairIKS0_S2_EEE5beginEv
	.section	.text._ZNSt3mapIPhP9func_stubSt4lessIS0_ESaISt4pairIKS0_S2_EEE3endEv,"axG",@progbits,_ZNSt3mapIPhP9func_stubSt4lessIS0_ESaISt4pairIKS0_S2_EEE3endEv,comdat
	.align 2
	.weak	_ZNSt3mapIPhP9func_stubSt4lessIS0_ESaISt4pairIKS0_S2_EEE3endEv
	.type	_ZNSt3mapIPhP9func_stubSt4lessIS0_ESaISt4pairIKS0_S2_EEE3endEv, @function
_ZNSt3mapIPhP9func_stubSt4lessIS0_ESaISt4pairIKS0_S2_EEE3endEv:
.LFB2401:
	.loc 3 372 7
	.cfi_startproc
	endbr64
	pushq	%rbp
	.cfi_def_cfa_offset 16
	.cfi_offset 6, -16
	movq	%rsp, %rbp
	.cfi_def_cfa_register 6
	subq	$16, %rsp
	movq	%rdi, -8(%rbp)
	.loc 3 373 25
	movq	-8(%rbp), %rax
	movq	%rax, %rdi
	call	_ZNSt8_Rb_treeIPhSt4pairIKS0_P9func_stubESt10_Select1stIS5_ESt4lessIS0_ESaIS5_EE3endEv
	.loc 3 373 28
	leave
	.cfi_def_cfa 7, 8
	ret
	.cfi_endproc
.LFE2401:
	.size	_ZNSt3mapIPhP9func_stubSt4lessIS0_ESaISt4pairIKS0_S2_EEE3endEv, .-_ZNSt3mapIPhP9func_stubSt4lessIS0_ESaISt4pairIKS0_S2_EEE3endEv
	.section	.text._ZStneRKSt17_Rb_tree_iteratorISt4pairIKPhP9func_stubEES8_,"axG",@progbits,_ZStneRKSt17_Rb_tree_iteratorISt4pairIKPhP9func_stubEES8_,comdat
	.weak	_ZStneRKSt17_Rb_tree_iteratorISt4pairIKPhP9func_stubEES8_
	.type	_ZStneRKSt17_Rb_tree_iteratorISt4pairIKPhP9func_stubEES8_, @function
_ZStneRKSt17_Rb_tree_iteratorISt4pairIKPhP9func_stubEES8_:
.LFB2402:
	.loc 2 319 7
	.cfi_startproc
	endbr64
	pushq	%rbp
	.cfi_def_cfa_offset 16
	.cfi_offset 6, -16
	movq	%rsp, %rbp
	.cfi_def_cfa_register 6
	movq	%rdi, -8(%rbp)
	movq	%rsi, -16(%rbp)
	.loc 2 320 20
	movq	-8(%rbp), %rax
	movq	(%rax), %rdx
	.loc 2 320 35
	movq	-16(%rbp), %rax
	movq	(%rax), %rax
	cmpq	%rax, %rdx
	setne	%al
	.loc 2 320 44
	popq	%rbp
	.cfi_def_cfa 7, 8
	ret
	.cfi_endproc
.LFE2402:
	.size	_ZStneRKSt17_Rb_tree_iteratorISt4pairIKPhP9func_stubEES8_, .-_ZStneRKSt17_Rb_tree_iteratorISt4pairIKPhP9func_stubEES8_
	.section	.text._ZNSt17_Rb_tree_iteratorISt4pairIKPhP9func_stubEEppEi,"axG",@progbits,_ZNSt17_Rb_tree_iteratorISt4pairIKPhP9func_stubEEppEi,comdat
	.align 2
	.weak	_ZNSt17_Rb_tree_iteratorISt4pairIKPhP9func_stubEEppEi
	.type	_ZNSt17_Rb_tree_iteratorISt4pairIKPhP9func_stubEEppEi, @function
_ZNSt17_Rb_tree_iteratorISt4pairIKPhP9func_stubEEppEi:
.LFB2403:
	.loc 2 292 7
	.cfi_startproc
	endbr64
	pushq	%rbp
	.cfi_def_cfa_offset 16
	.cfi_offset 6, -16
	movq	%rsp, %rbp
	.cfi_def_cfa_register 6
	subq	$32, %rsp
	movq	%rdi, -24(%rbp)
	movl	%esi, -28(%rbp)
	.loc 2 292 7
	movq	%fs:40, %rax
	movq	%rax, -8(%rbp)
	xorl	%eax, %eax
	.loc 2 294 8
	movq	-24(%rbp), %rax
	movq	(%rax), %rax
	movq	%rax, -16(%rbp)
	.loc 2 295 30
	movq	-24(%rbp), %rax
	movq	(%rax), %rax
	movq	%rax, %rdi
	call	_ZSt18_Rb_tree_incrementPSt18_Rb_tree_node_base@PLT
	.loc 2 295 2
	movq	-24(%rbp), %rdx
	movq	%rax, (%rdx)
	.loc 2 296 9
	movq	-16(%rbp), %rax
	.loc 2 297 7
	movq	-8(%rbp), %rcx
	xorq	%fs:40, %rcx
	je	.L50
	call	__stack_chk_fail@PLT
.L50:
	leave
	.cfi_def_cfa 7, 8
	ret
	.cfi_endproc
.LFE2403:
	.size	_ZNSt17_Rb_tree_iteratorISt4pairIKPhP9func_stubEEppEi, .-_ZNSt17_Rb_tree_iteratorISt4pairIKPhP9func_stubEEppEi
	.section	.text._ZNKSt17_Rb_tree_iteratorISt4pairIKPhP9func_stubEEptEv,"axG",@progbits,_ZNKSt17_Rb_tree_iteratorISt4pairIKPhP9func_stubEEptEv,comdat
	.align 2
	.weak	_ZNKSt17_Rb_tree_iteratorISt4pairIKPhP9func_stubEEptEv
	.type	_ZNKSt17_Rb_tree_iteratorISt4pairIKPhP9func_stubEEptEv, @function
_ZNKSt17_Rb_tree_iteratorISt4pairIKPhP9func_stubEEptEv:
.LFB2404:
	.loc 2 281 7
	.cfi_startproc
	endbr64
	pushq	%rbp
	.cfi_def_cfa_offset 16
	.cfi_offset 6, -16
	movq	%rsp, %rbp
	.cfi_def_cfa_register 6
	subq	$16, %rsp
	movq	%rdi, -8(%rbp)
	.loc 2 282 41
	movq	-8(%rbp), %rax
	movq	(%rax), %rax
	.loc 2 282 61
	movq	%rax, %rdi
	call	_ZNSt13_Rb_tree_nodeISt4pairIKPhP9func_stubEE9_M_valptrEv
	.loc 2 282 64
	leave
	.cfi_def_cfa 7, 8
	ret
	.cfi_endproc
.LFE2404:
	.size	_ZNKSt17_Rb_tree_iteratorISt4pairIKPhP9func_stubEEptEv, .-_ZNKSt17_Rb_tree_iteratorISt4pairIKPhP9func_stubEEptEv
	.section	.text._Z13get_ctor_addrI1AEPvb,"axG",@progbits,_Z13get_ctor_addrI1AEPvb,comdat
	.weak	_Z13get_ctor_addrI1AEPvb
	.type	_Z13get_ctor_addrI1AEPvb, @function
_Z13get_ctor_addrI1AEPvb:
.LFB2408:
	.loc 5 7 8
	.cfi_startproc
	endbr64
	pushq	%rbp
	.cfi_def_cfa_offset 16
	.cfi_offset 6, -16
	movq	%rsp, %rbp
	.cfi_def_cfa_register 6
	subq	$48, %rsp
	movl	%edi, %eax
	movb	%al, -36(%rbp)
	.loc 5 7 8
	movq	%fs:40, %rax
	movq	%rax, -8(%rbp)
	xorl	%eax, %eax
	.loc 5 10 5
	cmpb	$0, -36(%rbp)
	jne	.L58
.L54:
	endbr64
	.loc 5 14 5
	leaq	-29(%rbp), %rax
	movq	%rax, %rdi
	call	_ZN1AC1Ev
	jmp	.L55
.L58:
	.loc 5 10 20
	nop
.L55:
	.loc 5 17 12
	leaq	.L54(%rip), %rax
	movq	%rax, -24(%rbp)
	.loc 5 18 9
	movq	-24(%rbp), %rax
	movl	12(%rax), %eax
	movl	%eax, -28(%rbp)
	.loc 5 19 27
	movl	-28(%rbp), %eax
	cltq
	.loc 5 19 25
	leaq	12(%rax), %rdx
	.loc 5 19 12
	movq	-24(%rbp), %rax
	addq	%rdx, %rax
	movq	%rax, -16(%rbp)
	.loc 5 21 12
	movq	-16(%rbp), %rax
	.loc 5 22 1
	movq	-8(%rbp), %rcx
	xorq	%fs:40, %rcx
	je	.L57
	call	__stack_chk_fail@PLT
.L57:
	leave
	.cfi_def_cfa 7, 8
	ret
	.cfi_endproc
.LFE2408:
	.size	_Z13get_ctor_addrI1AEPvb, .-_Z13get_ctor_addrI1AEPvb
	.section	.text._Z13get_ctor_addrI1BEPvb,"axG",@progbits,_Z13get_ctor_addrI1BEPvb,comdat
	.weak	_Z13get_ctor_addrI1BEPvb
	.type	_Z13get_ctor_addrI1BEPvb, @function
_Z13get_ctor_addrI1BEPvb:
.LFB2409:
	.loc 5 7 8
	.cfi_startproc
	endbr64
	pushq	%rbp
	.cfi_def_cfa_offset 16
	.cfi_offset 6, -16
	movq	%rsp, %rbp
	.cfi_def_cfa_register 6
	subq	$48, %rsp
	movl	%edi, %eax
	movb	%al, -36(%rbp)
	.loc 5 7 8
	movq	%fs:40, %rax
	movq	%rax, -8(%rbp)
	xorl	%eax, %eax
	.loc 5 10 5
	cmpb	$0, -36(%rbp)
	jne	.L64
.L60:
	endbr64
	.loc 5 14 5
	leaq	-29(%rbp), %rax
	movq	%rax, %rdi
	call	_ZN1BC1Ev
	jmp	.L61
.L64:
	.loc 5 10 20
	nop
.L61:
	.loc 5 17 12
	leaq	.L60(%rip), %rax
	movq	%rax, -24(%rbp)
	.loc 5 18 9
	movq	-24(%rbp), %rax
	movl	12(%rax), %eax
	movl	%eax, -28(%rbp)
	.loc 5 19 27
	movl	-28(%rbp), %eax
	cltq
	.loc 5 19 25
	leaq	12(%rax), %rdx
	.loc 5 19 12
	movq	-24(%rbp), %rax
	addq	%rdx, %rax
	movq	%rax, -16(%rbp)
	.loc 5 21 12
	movq	-16(%rbp), %rax
	.loc 5 22 1
	movq	-8(%rbp), %rcx
	xorq	%fs:40, %rcx
	je	.L63
	call	__stack_chk_fail@PLT
.L63:
	leave
	.cfi_def_cfa 7, 8
	ret
	.cfi_endproc
.LFE2409:
	.size	_Z13get_ctor_addrI1BEPvb, .-_Z13get_ctor_addrI1BEPvb
	.section	.rodata
	.align 8
.LC2:
	.string	"stub set memory protect to w+r+x faild"
	.align 8
.LC3:
	.string	"stub set memory protect to r+x failed"
	.section	.text._ZN4Stub3setIPvS1_EEvT_T0_,"axG",@progbits,_ZN4Stub3setIPvS1_EEvT_T0_,comdat
	.align 2
	.weak	_ZN4Stub3setIPvS1_EEvT_T0_
	.type	_ZN4Stub3setIPvS1_EEvT_T0_, @function
_ZN4Stub3setIPvS1_EEvT_T0_:
.LFB2410:
	.loc 4 370 10
	.cfi_startproc
	endbr64
	pushq	%rbp
	.cfi_def_cfa_offset 16
	.cfi_offset 6, -16
	movq	%rsp, %rbp
	.cfi_def_cfa_register 6
	pushq	%rbx
	subq	$104, %rsp
	.cfi_offset 3, -24
	movq	%rdi, -88(%rbp)
	movq	%rsi, -96(%rbp)
	movq	%rdx, -104(%rbp)
	.loc 4 370 10
	movq	%fs:40, %rax
	movq	%rax, -24(%rbp)
	xorl	%eax, %eax
	.loc 4 374 12
	movq	-96(%rbp), %rdx
	movq	-88(%rbp), %rax
	movq	%rdx, %rsi
	movq	%rax, %rdi
	call	_ZN4Stub6addrofIPvEEPhT_
	.loc 4 374 9
	movq	%rax, -72(%rbp)
	.loc 4 375 17
	movq	-104(%rbp), %rdx
	movq	-88(%rbp), %rax
	movq	%rdx, %rsi
	movq	%rax, %rdi
	call	_ZN4Stub6addrofIPvEEPhT_
	movq	%rax, -56(%rbp)
	.loc 4 377 17
	movl	$24, %edi
	call	_Znwm@PLT
	.loc 4 377 9
	movq	%rax, -64(%rbp)
	.loc 4 379 14
	movq	-72(%rbp), %rdx
	movq	-88(%rbp), %rax
	movq	%rdx, %rsi
	movq	%rax, %rdi
	call	_ZN4Stub5resetIPhEEvT_
	.loc 4 380 16
	movq	-64(%rbp), %rax
	.loc 4 380 9
	movq	-72(%rbp), %rdx
	movq	%rdx, (%rax)
	.loc 4 382 22
	movq	-72(%rbp), %rcx
	movq	-56(%rbp), %rdx
	movq	-88(%rbp), %rax
	movq	%rcx, %rsi
	movq	%rax, %rdi
	call	_ZN4Stub10distanceofEPhS0_
	.loc 4 382 9
	testb	%al, %al
	je	.L66
	.loc 4 384 20
	movq	-64(%rbp), %rax
	.loc 4 384 13
	movb	$1, 21(%rax)
	.loc 4 385 24
	movq	-72(%rbp), %rax
	.loc 4 385 32
	movq	-64(%rbp), %rdx
	leaq	8(%rdx), %rcx
	.loc 4 385 24
	movl	$13, %edx
	movq	%rax, %rsi
	movq	%rcx, %rdi
	call	memcpy@PLT
	jmp	.L67
.L66:
	.loc 4 389 20
	movq	-64(%rbp), %rax
	.loc 4 389 13
	movb	$0, 21(%rax)
	.loc 4 390 24
	movq	-72(%rbp), %rax
	.loc 4 390 32
	movq	-64(%rbp), %rdx
	leaq	8(%rdx), %rcx
	.loc 4 390 24
	movl	$5, %edx
	movq	%rax, %rsi
	movq	%rcx, %rdi
	call	memcpy@PLT
.L67:
	.loc 4 397 47
	movq	-88(%rbp), %rax
	movq	(%rax), %rax
	.loc 4 397 58
	addq	%rax, %rax
	.loc 4 397 27
	movq	%rax, %rbx
	movq	-64(%rbp), %rax
	movq	(%rax), %rdx
	movq	-88(%rbp), %rax
	movq	%rdx, %rsi
	movq	%rax, %rdi
	call	_ZN4Stub6pageofEPh
	movl	$7, %edx
	movq	%rbx, %rsi
	movq	%rax, %rdi
	call	mprotect@PLT
	.loc 4 397 16
	cmpl	$-1, %eax
	sete	%al
	.loc 4 397 9
	testb	%al, %al
	je	.L68
	.loc 4 400 59
	movl	$8, %edi
	call	__cxa_allocate_exception@PLT
	leaq	.LC2(%rip), %rdx
	movq	%rdx, (%rax)
	movl	$0, %edx
	leaq	_ZTIPKc(%rip), %rsi
	movq	%rax, %rdi
	call	__cxa_throw@PLT
.L68:
	.loc 4 403 19
	movq	-64(%rbp), %rax
	movzbl	21(%rax), %eax
	.loc 4 403 9
	testb	%al, %al
	je	.L69
	.loc 4 405 13
	movq	-72(%rbp), %rax
	movb	$73, (%rax)
	movq	-72(%rbp), %rax
	addq	$1, %rax
	movb	$-69, (%rax)
	movq	-72(%rbp), %rax
	leaq	2(%rax), %rdx
	movq	-56(%rbp), %rax
	movq	%rax, (%rdx)
	movq	-72(%rbp), %rax
	addq	$10, %rax
	movb	$65, (%rax)
	movq	-72(%rbp), %rax
	addq	$11, %rax
	movb	$-1, (%rax)
	movq	-72(%rbp), %rax
	addq	$12, %rax
	movb	$-29, (%rax)
	jmp	.L70
.L69:
	.loc 4 409 13
	movq	-72(%rbp), %rax
	movb	$-23, (%rax)
	movq	-72(%rbp), %rax
	movq	-56(%rbp), %rdx
	subq	%rax, %rdx
	movq	%rdx, %rax
	leal	-5(%rax), %edx
	movq	-72(%rbp), %rax
	addq	$1, %rax
	movl	%edx, (%rax)
.L70:
	.loc 4 415 47
	movq	-88(%rbp), %rax
	movq	(%rax), %rax
	.loc 4 415 58
	addq	%rax, %rax
	.loc 4 415 27
	movq	%rax, %rbx
	movq	-64(%rbp), %rax
	movq	(%rax), %rdx
	movq	-88(%rbp), %rax
	movq	%rdx, %rsi
	movq	%rax, %rdi
	call	_ZN4Stub6pageofEPh
	movl	$5, %edx
	movq	%rbx, %rsi
	movq	%rax, %rdi
	call	mprotect@PLT
	.loc 4 415 16
	cmpl	$-1, %eax
	sete	%al
	.loc 4 415 9
	testb	%al, %al
	je	.L71
	.loc 4 418 58
	movl	$8, %edi
	call	__cxa_allocate_exception@PLT
	leaq	.LC3(%rip), %rdx
	movq	%rdx, (%rax)
	movl	$0, %edx
	leaq	_ZTIPKc(%rip), %rsi
	movq	%rax, %rdi
	call	__cxa_throw@PLT
.L71:
	.loc 4 420 24
	movq	-88(%rbp), %rax
	leaq	8(%rax), %rbx
	leaq	-64(%rbp), %rdx
	leaq	-72(%rbp), %rcx
	leaq	-48(%rbp), %rax
	movq	%rcx, %rsi
	movq	%rax, %rdi
	call	_ZNSt4pairIPhP9func_stubEC1IRS0_RS2_Lb1EEEOT_OT0_
	leaq	-48(%rbp), %rax
	movq	%rax, %rsi
	movq	%rbx, %rdi
	call	_ZNSt3mapIPhP9func_stubSt4lessIS0_ESaISt4pairIKS0_S2_EEE6insertIS5_IS0_S2_EEENSt9enable_ifIXsrSt16is_constructibleIS7_JT_EE5valueES5_ISt17_Rb_tree_iteratorIS7_EbEE4typeEOSE_
	.loc 4 421 9
	nop
	.loc 4 422 5
	movq	-24(%rbp), %rax
	xorq	%fs:40, %rax
	je	.L73
	call	__stack_chk_fail@PLT
.L73:
	addq	$104, %rsp
	popq	%rbx
	popq	%rbp
	.cfi_def_cfa 7, 8
	ret
	.cfi_endproc
.LFE2410:
	.size	_ZN4Stub3setIPvS1_EEvT_T0_, .-_ZN4Stub3setIPvS1_EEvT_T0_
	.section	.text._ZNSaISt13_Rb_tree_nodeISt4pairIKPhP9func_stubEEEC2Ev,"axG",@progbits,_ZNSaISt13_Rb_tree_nodeISt4pairIKPhP9func_stubEEEC5Ev,comdat
	.align 2
	.weak	_ZNSaISt13_Rb_tree_nodeISt4pairIKPhP9func_stubEEEC2Ev
	.type	_ZNSaISt13_Rb_tree_nodeISt4pairIKPhP9func_stubEEEC2Ev, @function
_ZNSaISt13_Rb_tree_nodeISt4pairIKPhP9func_stubEEEC2Ev:
.LFB2528:
	.loc 6 137 7
	.cfi_startproc
	endbr64
	pushq	%rbp
	.cfi_def_cfa_offset 16
	.cfi_offset 6, -16
	movq	%rsp, %rbp
	.cfi_def_cfa_register 6
	subq	$16, %rsp
	movq	%rdi, -8(%rbp)
.LBB15:
	.loc 6 137 36
	movq	-8(%rbp), %rax
	movq	%rax, %rdi
	call	_ZN9__gnu_cxx13new_allocatorISt13_Rb_tree_nodeISt4pairIKPhP9func_stubEEEC2Ev
.LBE15:
	.loc 6 137 38
	nop
	leave
	.cfi_def_cfa 7, 8
	ret
	.cfi_endproc
.LFE2528:
	.size	_ZNSaISt13_Rb_tree_nodeISt4pairIKPhP9func_stubEEEC2Ev, .-_ZNSaISt13_Rb_tree_nodeISt4pairIKPhP9func_stubEEEC2Ev
	.weak	_ZNSaISt13_Rb_tree_nodeISt4pairIKPhP9func_stubEEEC1Ev
	.set	_ZNSaISt13_Rb_tree_nodeISt4pairIKPhP9func_stubEEEC1Ev,_ZNSaISt13_Rb_tree_nodeISt4pairIKPhP9func_stubEEEC2Ev
	.section	.text._ZNSt20_Rb_tree_key_compareISt4lessIPhEEC2Ev,"axG",@progbits,_ZNSt20_Rb_tree_key_compareISt4lessIPhEEC5Ev,comdat
	.align 2
	.weak	_ZNSt20_Rb_tree_key_compareISt4lessIPhEEC2Ev
	.type	_ZNSt20_Rb_tree_key_compareISt4lessIPhEEC2Ev, @function
_ZNSt20_Rb_tree_key_compareISt4lessIPhEEC2Ev:
.LFB2531:
	.loc 2 146 7
	.cfi_startproc
	endbr64
	pushq	%rbp
	.cfi_def_cfa_offset 16
	.cfi_offset 6, -16
	movq	%rsp, %rbp
	.cfi_def_cfa_register 6
	movq	%rdi, -8(%rbp)
	.loc 2 150 9
	nop
	popq	%rbp
	.cfi_def_cfa 7, 8
	ret
	.cfi_endproc
.LFE2531:
	.size	_ZNSt20_Rb_tree_key_compareISt4lessIPhEEC2Ev, .-_ZNSt20_Rb_tree_key_compareISt4lessIPhEEC2Ev
	.weak	_ZNSt20_Rb_tree_key_compareISt4lessIPhEEC1Ev
	.set	_ZNSt20_Rb_tree_key_compareISt4lessIPhEEC1Ev,_ZNSt20_Rb_tree_key_compareISt4lessIPhEEC2Ev
	.section	.text._ZN9__gnu_cxx13new_allocatorISt13_Rb_tree_nodeISt4pairIKPhP9func_stubEEED2Ev,"axG",@progbits,_ZN9__gnu_cxx13new_allocatorISt13_Rb_tree_nodeISt4pairIKPhP9func_stubEEED5Ev,comdat
	.align 2
	.weak	_ZN9__gnu_cxx13new_allocatorISt13_Rb_tree_nodeISt4pairIKPhP9func_stubEEED2Ev
	.type	_ZN9__gnu_cxx13new_allocatorISt13_Rb_tree_nodeISt4pairIKPhP9func_stubEEED2Ev, @function
_ZN9__gnu_cxx13new_allocatorISt13_Rb_tree_nodeISt4pairIKPhP9func_stubEEED2Ev:
.LFB2534:
	.file 7 "/usr/include/c++/9/ext/new_allocator.h"
	.loc 7 89 7
	.cfi_startproc
	endbr64
	pushq	%rbp
	.cfi_def_cfa_offset 16
	.cfi_offset 6, -16
	movq	%rsp, %rbp
	.cfi_def_cfa_register 6
	movq	%rdi, -8(%rbp)
	.loc 7 89 48
	nop
	popq	%rbp
	.cfi_def_cfa 7, 8
	ret
	.cfi_endproc
.LFE2534:
	.size	_ZN9__gnu_cxx13new_allocatorISt13_Rb_tree_nodeISt4pairIKPhP9func_stubEEED2Ev, .-_ZN9__gnu_cxx13new_allocatorISt13_Rb_tree_nodeISt4pairIKPhP9func_stubEEED2Ev
	.weak	_ZN9__gnu_cxx13new_allocatorISt13_Rb_tree_nodeISt4pairIKPhP9func_stubEEED1Ev
	.set	_ZN9__gnu_cxx13new_allocatorISt13_Rb_tree_nodeISt4pairIKPhP9func_stubEEED1Ev,_ZN9__gnu_cxx13new_allocatorISt13_Rb_tree_nodeISt4pairIKPhP9func_stubEEED2Ev
	.section	.text._ZNSt8_Rb_treeIPhSt4pairIKS0_P9func_stubESt10_Select1stIS5_ESt4lessIS0_ESaIS5_EE8_M_eraseEPSt13_Rb_tree_nodeIS5_E,"axG",@progbits,_ZNSt8_Rb_treeIPhSt4pairIKS0_P9func_stubESt10_Select1stIS5_ESt4lessIS0_ESaIS5_EE8_M_eraseEPSt13_Rb_tree_nodeIS5_E,comdat
	.align 2
	.weak	_ZNSt8_Rb_treeIPhSt4pairIKS0_P9func_stubESt10_Select1stIS5_ESt4lessIS0_ESaIS5_EE8_M_eraseEPSt13_Rb_tree_nodeIS5_E
	.type	_ZNSt8_Rb_treeIPhSt4pairIKS0_P9func_stubESt10_Select1stIS5_ESt4lessIS0_ESaIS5_EE8_M_eraseEPSt13_Rb_tree_nodeIS5_E, @function
_ZNSt8_Rb_treeIPhSt4pairIKS0_P9func_stubESt10_Select1stIS5_ESt4lessIS0_ESaIS5_EE8_M_eraseEPSt13_Rb_tree_nodeIS5_E:
.LFB2536:
	.loc 2 1912 5
	.cfi_startproc
	endbr64
	pushq	%rbp
	.cfi_def_cfa_offset 16
	.cfi_offset 6, -16
	movq	%rsp, %rbp
	.cfi_def_cfa_register 6
	subq	$32, %rsp
	movq	%rdi, -24(%rbp)
	movq	%rsi, -32(%rbp)
.L79:
	.loc 2 1916 18
	cmpq	$0, -32(%rbp)
	je	.L80
.LBB16:
	.loc 2 1918 4
	movq	-32(%rbp), %rax
	movq	%rax, %rdi
	call	_ZNSt8_Rb_treeIPhSt4pairIKS0_P9func_stubESt10_Select1stIS5_ESt4lessIS0_ESaIS5_EE8_S_rightEPSt18_Rb_tree_node_base
	movq	%rax, %rdx
	movq	-24(%rbp), %rax
	movq	%rdx, %rsi
	movq	%rax, %rdi
	call	_ZNSt8_Rb_treeIPhSt4pairIKS0_P9func_stubESt10_Select1stIS5_ESt4lessIS0_ESaIS5_EE8_M_eraseEPSt13_Rb_tree_nodeIS5_E
	.loc 2 1919 28
	movq	-32(%rbp), %rax
	movq	%rax, %rdi
	call	_ZNSt8_Rb_treeIPhSt4pairIKS0_P9func_stubESt10_Select1stIS5_ESt4lessIS0_ESaIS5_EE7_S_leftEPSt18_Rb_tree_node_base
	movq	%rax, -8(%rbp)
	.loc 2 1920 4
	movq	-32(%rbp), %rdx
	movq	-24(%rbp), %rax
	movq	%rdx, %rsi
	movq	%rax, %rdi
	call	_ZNSt8_Rb_treeIPhSt4pairIKS0_P9func_stubESt10_Select1stIS5_ESt4lessIS0_ESaIS5_EE12_M_drop_nodeEPSt13_Rb_tree_nodeIS5_E
	.loc 2 1921 4
	movq	-8(%rbp), %rax
	movq	%rax, -32(%rbp)
.LBE16:
	.loc 2 1916 7
	jmp	.L79
.L80:
	.loc 2 1923 5
	nop
	leave
	.cfi_def_cfa 7, 8
	ret
	.cfi_endproc
.LFE2536:
	.size	_ZNSt8_Rb_treeIPhSt4pairIKS0_P9func_stubESt10_Select1stIS5_ESt4lessIS0_ESaIS5_EE8_M_eraseEPSt13_Rb_tree_nodeIS5_E, .-_ZNSt8_Rb_treeIPhSt4pairIKS0_P9func_stubESt10_Select1stIS5_ESt4lessIS0_ESaIS5_EE8_M_eraseEPSt13_Rb_tree_nodeIS5_E
	.section	.text._ZNSt8_Rb_treeIPhSt4pairIKS0_P9func_stubESt10_Select1stIS5_ESt4lessIS0_ESaIS5_EE8_M_beginEv,"axG",@progbits,_ZNSt8_Rb_treeIPhSt4pairIKS0_P9func_stubESt10_Select1stIS5_ESt4lessIS0_ESaIS5_EE8_M_beginEv,comdat
	.align 2
	.weak	_ZNSt8_Rb_treeIPhSt4pairIKS0_P9func_stubESt10_Select1stIS5_ESt4lessIS0_ESaIS5_EE8_M_beginEv
	.type	_ZNSt8_Rb_treeIPhSt4pairIKS0_P9func_stubESt10_Select1stIS5_ESt4lessIS0_ESaIS5_EE8_M_beginEv, @function
_ZNSt8_Rb_treeIPhSt4pairIKS0_P9func_stubESt10_Select1stIS5_ESt4lessIS0_ESaIS5_EE8_M_beginEv:
.LFB2537:
	.loc 2 749 7
	.cfi_startproc
	endbr64
	pushq	%rbp
	.cfi_def_cfa_offset 16
	.cfi_offset 6, -16
	movq	%rsp, %rbp
	.cfi_def_cfa_register 6
	movq	%rdi, -8(%rbp)
	.loc 2 750 73
	movq	-8(%rbp), %rax
	movq	16(%rax), %rax
	.loc 2 750 76
	popq	%rbp
	.cfi_def_cfa 7, 8
	ret
	.cfi_endproc
.LFE2537:
	.size	_ZNSt8_Rb_treeIPhSt4pairIKS0_P9func_stubESt10_Select1stIS5_ESt4lessIS0_ESaIS5_EE8_M_beginEv, .-_ZNSt8_Rb_treeIPhSt4pairIKS0_P9func_stubESt10_Select1stIS5_ESt4lessIS0_ESaIS5_EE8_M_beginEv
	.section	.text._ZNSt8_Rb_treeIPhSt4pairIKS0_P9func_stubESt10_Select1stIS5_ESt4lessIS0_ESaIS5_EE5beginEv,"axG",@progbits,_ZNSt8_Rb_treeIPhSt4pairIKS0_P9func_stubESt10_Select1stIS5_ESt4lessIS0_ESaIS5_EE5beginEv,comdat
	.align 2
	.weak	_ZNSt8_Rb_treeIPhSt4pairIKS0_P9func_stubESt10_Select1stIS5_ESt4lessIS0_ESaIS5_EE5beginEv
	.type	_ZNSt8_Rb_treeIPhSt4pairIKS0_P9func_stubESt10_Select1stIS5_ESt4lessIS0_ESaIS5_EE5beginEv, @function
_ZNSt8_Rb_treeIPhSt4pairIKS0_P9func_stubESt10_Select1stIS5_ESt4lessIS0_ESaIS5_EE5beginEv:
.LFB2538:
	.loc 2 1011 7
	.cfi_startproc
	endbr64
	pushq	%rbp
	.cfi_def_cfa_offset 16
	.cfi_offset 6, -16
	movq	%rsp, %rbp
	.cfi_def_cfa_register 6
	subq	$32, %rsp
	movq	%rdi, -24(%rbp)
	.loc 2 1011 7
	movq	%fs:40, %rax
	movq	%rax, -8(%rbp)
	xorl	%eax, %eax
	.loc 2 1012 56
	movq	-24(%rbp), %rax
	movq	24(%rax), %rdx
	leaq	-16(%rbp), %rax
	movq	%rdx, %rsi
	movq	%rax, %rdi
	call	_ZNSt17_Rb_tree_iteratorISt4pairIKPhP9func_stubEEC1EPSt18_Rb_tree_node_base
	movq	-16(%rbp), %rax
	.loc 2 1012 59
	movq	-8(%rbp), %rcx
	xorq	%fs:40, %rcx
	je	.L85
	call	__stack_chk_fail@PLT
.L85:
	leave
	.cfi_def_cfa 7, 8
	ret
	.cfi_endproc
.LFE2538:
	.size	_ZNSt8_Rb_treeIPhSt4pairIKS0_P9func_stubESt10_Select1stIS5_ESt4lessIS0_ESaIS5_EE5beginEv, .-_ZNSt8_Rb_treeIPhSt4pairIKS0_P9func_stubESt10_Select1stIS5_ESt4lessIS0_ESaIS5_EE5beginEv
	.section	.text._ZNSt8_Rb_treeIPhSt4pairIKS0_P9func_stubESt10_Select1stIS5_ESt4lessIS0_ESaIS5_EE3endEv,"axG",@progbits,_ZNSt8_Rb_treeIPhSt4pairIKS0_P9func_stubESt10_Select1stIS5_ESt4lessIS0_ESaIS5_EE3endEv,comdat
	.align 2
	.weak	_ZNSt8_Rb_treeIPhSt4pairIKS0_P9func_stubESt10_Select1stIS5_ESt4lessIS0_ESaIS5_EE3endEv
	.type	_ZNSt8_Rb_treeIPhSt4pairIKS0_P9func_stubESt10_Select1stIS5_ESt4lessIS0_ESaIS5_EE3endEv, @function
_ZNSt8_Rb_treeIPhSt4pairIKS0_P9func_stubESt10_Select1stIS5_ESt4lessIS0_ESaIS5_EE3endEv:
.LFB2539:
	.loc 2 1019 7
	.cfi_startproc
	endbr64
	pushq	%rbp
	.cfi_def_cfa_offset 16
	.cfi_offset 6, -16
	movq	%rsp, %rbp
	.cfi_def_cfa_register 6
	subq	$32, %rsp
	movq	%rdi, -24(%rbp)
	.loc 2 1019 7
	movq	%fs:40, %rax
	movq	%rax, -8(%rbp)
	xorl	%eax, %eax
	.loc 2 1020 49
	movq	-24(%rbp), %rax
	leaq	8(%rax), %rdx
	leaq	-16(%rbp), %rax
	movq	%rdx, %rsi
	movq	%rax, %rdi
	call	_ZNSt17_Rb_tree_iteratorISt4pairIKPhP9func_stubEEC1EPSt18_Rb_tree_node_base
	movq	-16(%rbp), %rax
	.loc 2 1020 52
	movq	-8(%rbp), %rcx
	xorq	%fs:40, %rcx
	je	.L88
	call	__stack_chk_fail@PLT
.L88:
	leave
	.cfi_def_cfa 7, 8
	ret
	.cfi_endproc
.LFE2539:
	.size	_ZNSt8_Rb_treeIPhSt4pairIKS0_P9func_stubESt10_Select1stIS5_ESt4lessIS0_ESaIS5_EE3endEv, .-_ZNSt8_Rb_treeIPhSt4pairIKS0_P9func_stubESt10_Select1stIS5_ESt4lessIS0_ESaIS5_EE3endEv
	.section	.text._ZNSt13_Rb_tree_nodeISt4pairIKPhP9func_stubEE9_M_valptrEv,"axG",@progbits,_ZNSt13_Rb_tree_nodeISt4pairIKPhP9func_stubEE9_M_valptrEv,comdat
	.align 2
	.weak	_ZNSt13_Rb_tree_nodeISt4pairIKPhP9func_stubEE9_M_valptrEv
	.type	_ZNSt13_Rb_tree_nodeISt4pairIKPhP9func_stubEE9_M_valptrEv, @function
_ZNSt13_Rb_tree_nodeISt4pairIKPhP9func_stubEE9_M_valptrEv:
.LFB2540:
	.loc 2 234 7
	.cfi_startproc
	endbr64
	pushq	%rbp
	.cfi_def_cfa_offset 16
	.cfi_offset 6, -16
	movq	%rsp, %rbp
	.cfi_def_cfa_register 6
	subq	$16, %rsp
	movq	%rdi, -8(%rbp)
	.loc 2 235 34
	movq	-8(%rbp), %rax
	addq	$32, %rax
	movq	%rax, %rdi
	call	_ZN9__gnu_cxx16__aligned_membufISt4pairIKPhP9func_stubEE6_M_ptrEv
	.loc 2 235 37
	leave
	.cfi_def_cfa 7, 8
	ret
	.cfi_endproc
.LFE2540:
	.size	_ZNSt13_Rb_tree_nodeISt4pairIKPhP9func_stubEE9_M_valptrEv, .-_ZNSt13_Rb_tree_nodeISt4pairIKPhP9func_stubEE9_M_valptrEv
	.section	.text._ZN4Stub6addrofIPvEEPhT_,"axG",@progbits,_ZN4Stub6addrofIPvEEPhT_,comdat
	.align 2
	.weak	_ZN4Stub6addrofIPvEEPhT_
	.type	_ZN4Stub6addrofIPvEEPhT_, @function
_ZN4Stub6addrofIPvEEPhT_:
.LFB2544:
	.loc 4 485 20
	.cfi_startproc
	endbr64
	pushq	%rbp
	.cfi_def_cfa_offset 16
	.cfi_offset 6, -16
	movq	%rsp, %rbp
	.cfi_def_cfa_register 6
	movq	%rdi, -24(%rbp)
	movq	%rsi, -32(%rbp)
	.loc 4 492 9
	movq	-32(%rbp), %rax
	movq	%rax, -8(%rbp)
	.loc 4 493 19
	movq	-8(%rbp), %rax
	.loc 4 494 5
	popq	%rbp
	.cfi_def_cfa 7, 8
	ret
	.cfi_endproc
.LFE2544:
	.size	_ZN4Stub6addrofIPvEEPhT_, .-_ZN4Stub6addrofIPvEEPhT_
	.section	.rodata
	.align 8
.LC4:
	.string	"stub reset memory protect to w+r+x faild"
	.align 8
.LC5:
	.string	"stub reset memory protect to r+x failed"
	.section	.text._ZN4Stub5resetIPhEEvT_,"axG",@progbits,_ZN4Stub5resetIPhEEvT_,comdat
	.align 2
	.weak	_ZN4Stub5resetIPhEEvT_
	.type	_ZN4Stub5resetIPhEEvT_, @function
_ZN4Stub5resetIPhEEvT_:
.LFB2545:
	.loc 4 425 10
	.cfi_startproc
	endbr64
	pushq	%rbp
	.cfi_def_cfa_offset 16
	.cfi_offset 6, -16
	movq	%rsp, %rbp
	.cfi_def_cfa_register 6
	pushq	%rbx
	subq	$72, %rsp
	.cfi_offset 3, -24
	movq	%rdi, -72(%rbp)
	movq	%rsi, -80(%rbp)
	.loc 4 425 10
	movq	%fs:40, %rax
	movq	%rax, -24(%rbp)
	xorl	%eax, %eax
	.loc 4 428 12
	movq	-80(%rbp), %rdx
	movq	-72(%rbp), %rax
	movq	%rdx, %rsi
	movq	%rax, %rdi
	call	_ZN4Stub6addrofIPhEES1_T_
	.loc 4 428 9
	movq	%rax, -56(%rbp)
	.loc 4 430 75
	movq	-72(%rbp), %rax
	leaq	8(%rax), %rdx
	leaq	-56(%rbp), %rax
	movq	%rax, %rsi
	movq	%rdx, %rdi
	call	_ZNSt3mapIPhP9func_stubSt4lessIS0_ESaISt4pairIKS0_S2_EEE4findERS6_
	movq	%rax, -48(%rbp)
	.loc 4 432 33
	movq	-72(%rbp), %rax
	addq	$8, %rax
	movq	%rax, %rdi
	call	_ZNSt3mapIPhP9func_stubSt4lessIS0_ESaISt4pairIKS0_S2_EEE3endEv
	movq	%rax, -40(%rbp)
	.loc 4 432 18
	leaq	-40(%rbp), %rdx
	leaq	-48(%rbp), %rax
	movq	%rdx, %rsi
	movq	%rax, %rdi
	call	_ZSteqRKSt17_Rb_tree_iteratorISt4pairIKPhP9func_stubEES8_
	.loc 4 432 9
	testb	%al, %al
	jne	.L103
	.loc 4 437 23
	leaq	-48(%rbp), %rax
	movq	%rax, %rdi
	call	_ZNKSt17_Rb_tree_iteratorISt4pairIKPhP9func_stubEEptEv
	.loc 4 437 9
	movq	8(%rax), %rax
	movq	%rax, -32(%rbp)
	.loc 4 443 47
	movq	-72(%rbp), %rax
	movq	(%rax), %rax
	.loc 4 443 58
	addq	%rax, %rax
	.loc 4 443 27
	movq	%rax, %rbx
	movq	-32(%rbp), %rax
	movq	(%rax), %rdx
	movq	-72(%rbp), %rax
	movq	%rdx, %rsi
	movq	%rax, %rdi
	call	_ZN4Stub6pageofEPh
	movl	$7, %edx
	movq	%rbx, %rsi
	movq	%rax, %rdi
	call	mprotect@PLT
	.loc 4 443 16
	cmpl	$-1, %eax
	sete	%al
	.loc 4 443 9
	testb	%al, %al
	je	.L96
	.loc 4 446 61
	movl	$8, %edi
	call	__cxa_allocate_exception@PLT
	leaq	.LC4(%rip), %rdx
	movq	%rdx, (%rax)
	movl	$0, %edx
	leaq	_ZTIPKc(%rip), %rsi
	movq	%rax, %rdi
	call	__cxa_throw@PLT
.L96:
	.loc 4 449 19
	movq	-32(%rbp), %rax
	movzbl	21(%rax), %eax
	.loc 4 449 9
	testb	%al, %al
	je	.L97
	.loc 4 451 43
	movq	-32(%rbp), %rax
	leaq	8(%rax), %rcx
	.loc 4 451 32
	movq	-32(%rbp), %rax
	movq	(%rax), %rax
	.loc 4 451 24
	movl	$13, %edx
	movq	%rcx, %rsi
	movq	%rax, %rdi
	call	memcpy@PLT
	jmp	.L98
.L97:
	.loc 4 455 43
	movq	-32(%rbp), %rax
	leaq	8(%rax), %rcx
	.loc 4 455 32
	movq	-32(%rbp), %rax
	movq	(%rax), %rax
	.loc 4 455 24
	movl	$5, %edx
	movq	%rcx, %rsi
	movq	%rax, %rdi
	call	memcpy@PLT
.L98:
	.loc 4 464 47
	movq	-72(%rbp), %rax
	movq	(%rax), %rax
	.loc 4 464 58
	addq	%rax, %rax
	.loc 4 464 27
	movq	%rax, %rbx
	movq	-32(%rbp), %rax
	movq	(%rax), %rdx
	movq	-72(%rbp), %rax
	movq	%rdx, %rsi
	movq	%rax, %rdi
	call	_ZN4Stub6pageofEPh
	movl	$5, %edx
	movq	%rbx, %rsi
	movq	%rax, %rdi
	call	mprotect@PLT
	.loc 4 464 16
	cmpl	$-1, %eax
	sete	%al
	.loc 4 464 9
	testb	%al, %al
	je	.L99
	.loc 4 467 60
	movl	$8, %edi
	call	__cxa_allocate_exception@PLT
	leaq	.LC5(%rip), %rdx
	movq	%rdx, (%rax)
	movl	$0, %edx
	leaq	_ZTIPKc(%rip), %rsi
	movq	%rax, %rdi
	call	__cxa_throw@PLT
.L99:
	.loc 4 469 23
	movq	-72(%rbp), %rax
	leaq	8(%rax), %rdx
	movq	-48(%rbp), %rax
	movq	%rax, %rsi
	movq	%rdx, %rdi
	call	_ZNSt3mapIPhP9func_stubSt4lessIS0_ESaISt4pairIKS0_S2_EEE5eraseB5cxx11ESt17_Rb_tree_iteratorIS7_E
	.loc 4 470 16
	movq	-32(%rbp), %rax
	.loc 4 470 9
	testq	%rax, %rax
	je	.L104
	.loc 4 470 9 is_stmt 0 discriminator 1
	movl	$24, %esi
	movq	%rax, %rdi
	call	_ZdlPvm@PLT
	.loc 4 472 9 is_stmt 1 discriminator 1
	jmp	.L104
.L103:
	.loc 4 434 13
	nop
	jmp	.L93
.L104:
	.loc 4 472 9
	nop
.L93:
	.loc 4 473 5
	movq	-24(%rbp), %rax
	xorq	%fs:40, %rax
	je	.L102
	call	__stack_chk_fail@PLT
.L102:
	addq	$72, %rsp
	popq	%rbx
	popq	%rbp
	.cfi_def_cfa 7, 8
	ret
	.cfi_endproc
.LFE2545:
	.size	_ZN4Stub5resetIPhEEvT_, .-_ZN4Stub5resetIPhEEvT_
	.section	.text._ZNSt4pairIPhP9func_stubEC2IRS0_RS2_Lb1EEEOT_OT0_,"axG",@progbits,_ZNSt4pairIPhP9func_stubEC5IRS0_RS2_Lb1EEEOT_OT0_,comdat
	.align 2
	.weak	_ZNSt4pairIPhP9func_stubEC2IRS0_RS2_Lb1EEEOT_OT0_
	.type	_ZNSt4pairIPhP9func_stubEC2IRS0_RS2_Lb1EEEOT_OT0_, @function
_ZNSt4pairIPhP9func_stubEC2IRS0_RS2_Lb1EEEOT_OT0_:
.LFB2547:
	.file 8 "/usr/include/c++/9/bits/stl_pair.h"
	.loc 8 341 12
	.cfi_startproc
	endbr64
	pushq	%rbp
	.cfi_def_cfa_offset 16
	.cfi_offset 6, -16
	movq	%rsp, %rbp
	.cfi_def_cfa_register 6
	subq	$32, %rsp
	movq	%rdi, -8(%rbp)
	movq	%rsi, -16(%rbp)
	movq	%rdx, -24(%rbp)
.LBB17:
	.loc 8 342 27
	movq	-16(%rbp), %rax
	movq	%rax, %rdi
	call	_ZSt7forwardIRPhEOT_RNSt16remove_referenceIS2_E4typeE
	.loc 8 342 64
	movq	(%rax), %rdx
	movq	-8(%rbp), %rax
	movq	%rdx, (%rax)
	.loc 8 342 59
	movq	-24(%rbp), %rax
	movq	%rax, %rdi
	call	_ZSt7forwardIRP9func_stubEOT_RNSt16remove_referenceIS3_E4typeE
	.loc 8 342 64
	movq	(%rax), %rdx
	movq	-8(%rbp), %rax
	movq	%rdx, 8(%rax)
.LBE17:
	.loc 8 342 68
	nop
	leave
	.cfi_def_cfa 7, 8
	ret
	.cfi_endproc
.LFE2547:
	.size	_ZNSt4pairIPhP9func_stubEC2IRS0_RS2_Lb1EEEOT_OT0_, .-_ZNSt4pairIPhP9func_stubEC2IRS0_RS2_Lb1EEEOT_OT0_
	.weak	_ZNSt4pairIPhP9func_stubEC1IRS0_RS2_Lb1EEEOT_OT0_
	.set	_ZNSt4pairIPhP9func_stubEC1IRS0_RS2_Lb1EEEOT_OT0_,_ZNSt4pairIPhP9func_stubEC2IRS0_RS2_Lb1EEEOT_OT0_
	.section	.text._ZNSt3mapIPhP9func_stubSt4lessIS0_ESaISt4pairIKS0_S2_EEE6insertIS5_IS0_S2_EEENSt9enable_ifIXsrSt16is_constructibleIS7_JT_EE5valueES5_ISt17_Rb_tree_iteratorIS7_EbEE4typeEOSE_,"axG",@progbits,_ZNSt3mapIPhP9func_stubSt4lessIS0_ESaISt4pairIKS0_S2_EEE6insertIS5_IS0_S2_EEENSt9enable_ifIXsrSt16is_constructibleIS7_JT_EE5valueES5_ISt17_Rb_tree_iteratorIS7_EbEE4typeEOSE_,comdat
	.align 2
	.weak	_ZNSt3mapIPhP9func_stubSt4lessIS0_ESaISt4pairIKS0_S2_EEE6insertIS5_IS0_S2_EEENSt9enable_ifIXsrSt16is_constructibleIS7_JT_EE5valueES5_ISt17_Rb_tree_iteratorIS7_EbEE4typeEOSE_
	.type	_ZNSt3mapIPhP9func_stubSt4lessIS0_ESaISt4pairIKS0_S2_EEE6insertIS5_IS0_S2_EEENSt9enable_ifIXsrSt16is_constructibleIS7_JT_EE5valueES5_ISt17_Rb_tree_iteratorIS7_EbEE4typeEOSE_, @function
_ZNSt3mapIPhP9func_stubSt4lessIS0_ESaISt4pairIKS0_S2_EEE6insertIS5_IS0_S2_EEENSt9enable_ifIXsrSt16is_constructibleIS7_JT_EE5valueES5_ISt17_Rb_tree_iteratorIS7_EbEE4typeEOSE_:
.LFB2549:
	.loc 3 814 2
	.cfi_startproc
	endbr64
	pushq	%rbp
	.cfi_def_cfa_offset 16
	.cfi_offset 6, -16
	movq	%rsp, %rbp
	.cfi_def_cfa_register 6
	pushq	%rbx
	subq	$24, %rsp
	.cfi_offset 3, -24
	movq	%rdi, -24(%rbp)
	movq	%rsi, -32(%rbp)
	.loc 3 815 58
	movq	-24(%rbp), %rbx
	movq	-32(%rbp), %rax
	movq	%rax, %rdi
	call	_ZSt7forwardISt4pairIPhP9func_stubEEOT_RNSt16remove_referenceIS5_E4typeE
	movq	%rax, %rsi
	movq	%rbx, %rdi
	call	_ZNSt8_Rb_treeIPhSt4pairIKS0_P9func_stubESt10_Select1stIS5_ESt4lessIS0_ESaIS5_EE17_M_emplace_uniqueIJS1_IS0_S4_EEEES1_ISt17_Rb_tree_iteratorIS5_EbEDpOT_
	.loc 3 815 61
	addq	$24, %rsp
	popq	%rbx
	popq	%rbp
	.cfi_def_cfa 7, 8
	ret
	.cfi_endproc
.LFE2549:
	.size	_ZNSt3mapIPhP9func_stubSt4lessIS0_ESaISt4pairIKS0_S2_EEE6insertIS5_IS0_S2_EEENSt9enable_ifIXsrSt16is_constructibleIS7_JT_EE5valueES5_ISt17_Rb_tree_iteratorIS7_EbEE4typeEOSE_, .-_ZNSt3mapIPhP9func_stubSt4lessIS0_ESaISt4pairIKS0_S2_EEE6insertIS5_IS0_S2_EEENSt9enable_ifIXsrSt16is_constructibleIS7_JT_EE5valueES5_ISt17_Rb_tree_iteratorIS7_EbEE4typeEOSE_
	.section	.text._ZN9__gnu_cxx13new_allocatorISt13_Rb_tree_nodeISt4pairIKPhP9func_stubEEEC2Ev,"axG",@progbits,_ZN9__gnu_cxx13new_allocatorISt13_Rb_tree_nodeISt4pairIKPhP9func_stubEEEC5Ev,comdat
	.align 2
	.weak	_ZN9__gnu_cxx13new_allocatorISt13_Rb_tree_nodeISt4pairIKPhP9func_stubEEEC2Ev
	.type	_ZN9__gnu_cxx13new_allocatorISt13_Rb_tree_nodeISt4pairIKPhP9func_stubEEEC2Ev, @function
_ZN9__gnu_cxx13new_allocatorISt13_Rb_tree_nodeISt4pairIKPhP9func_stubEEEC2Ev:
.LFB2589:
	.loc 7 80 7
	.cfi_startproc
	endbr64
	pushq	%rbp
	.cfi_def_cfa_offset 16
	.cfi_offset 6, -16
	movq	%rsp, %rbp
	.cfi_def_cfa_register 6
	movq	%rdi, -8(%rbp)
	.loc 7 80 47
	nop
	popq	%rbp
	.cfi_def_cfa 7, 8
	ret
	.cfi_endproc
.LFE2589:
	.size	_ZN9__gnu_cxx13new_allocatorISt13_Rb_tree_nodeISt4pairIKPhP9func_stubEEEC2Ev, .-_ZN9__gnu_cxx13new_allocatorISt13_Rb_tree_nodeISt4pairIKPhP9func_stubEEEC2Ev
	.weak	_ZN9__gnu_cxx13new_allocatorISt13_Rb_tree_nodeISt4pairIKPhP9func_stubEEEC1Ev
	.set	_ZN9__gnu_cxx13new_allocatorISt13_Rb_tree_nodeISt4pairIKPhP9func_stubEEEC1Ev,_ZN9__gnu_cxx13new_allocatorISt13_Rb_tree_nodeISt4pairIKPhP9func_stubEEEC2Ev
	.section	.text._ZNSt8_Rb_treeIPhSt4pairIKS0_P9func_stubESt10_Select1stIS5_ESt4lessIS0_ESaIS5_EE8_S_rightEPSt18_Rb_tree_node_base,"axG",@progbits,_ZNSt8_Rb_treeIPhSt4pairIKS0_P9func_stubESt10_Select1stIS5_ESt4lessIS0_ESaIS5_EE8_S_rightEPSt18_Rb_tree_node_base,comdat
	.weak	_ZNSt8_Rb_treeIPhSt4pairIKS0_P9func_stubESt10_Select1stIS5_ESt4lessIS0_ESaIS5_EE8_S_rightEPSt18_Rb_tree_node_base
	.type	_ZNSt8_Rb_treeIPhSt4pairIKS0_P9func_stubESt10_Select1stIS5_ESt4lessIS0_ESaIS5_EE8_S_rightEPSt18_Rb_tree_node_base, @function
_ZNSt8_Rb_treeIPhSt4pairIKS0_P9func_stubESt10_Select1stIS5_ESt4lessIS0_ESaIS5_EE8_S_rightEPSt18_Rb_tree_node_base:
.LFB2591:
	.loc 2 802 7
	.cfi_startproc
	endbr64
	pushq	%rbp
	.cfi_def_cfa_offset 16
	.cfi_offset 6, -16
	movq	%rsp, %rbp
	.cfi_def_cfa_register 6
	movq	%rdi, -8(%rbp)
	.loc 2 803 53
	movq	-8(%rbp), %rax
	movq	24(%rax), %rax
	.loc 2 803 56
	popq	%rbp
	.cfi_def_cfa 7, 8
	ret
	.cfi_endproc
.LFE2591:
	.size	_ZNSt8_Rb_treeIPhSt4pairIKS0_P9func_stubESt10_Select1stIS5_ESt4lessIS0_ESaIS5_EE8_S_rightEPSt18_Rb_tree_node_base, .-_ZNSt8_Rb_treeIPhSt4pairIKS0_P9func_stubESt10_Select1stIS5_ESt4lessIS0_ESaIS5_EE8_S_rightEPSt18_Rb_tree_node_base
	.section	.text._ZNSt8_Rb_treeIPhSt4pairIKS0_P9func_stubESt10_Select1stIS5_ESt4lessIS0_ESaIS5_EE7_S_leftEPSt18_Rb_tree_node_base,"axG",@progbits,_ZNSt8_Rb_treeIPhSt4pairIKS0_P9func_stubESt10_Select1stIS5_ESt4lessIS0_ESaIS5_EE7_S_leftEPSt18_Rb_tree_node_base,comdat
	.weak	_ZNSt8_Rb_treeIPhSt4pairIKS0_P9func_stubESt10_Select1stIS5_ESt4lessIS0_ESaIS5_EE7_S_leftEPSt18_Rb_tree_node_base
	.type	_ZNSt8_Rb_treeIPhSt4pairIKS0_P9func_stubESt10_Select1stIS5_ESt4lessIS0_ESaIS5_EE7_S_leftEPSt18_Rb_tree_node_base, @function
_ZNSt8_Rb_treeIPhSt4pairIKS0_P9func_stubESt10_Select1stIS5_ESt4lessIS0_ESaIS5_EE7_S_leftEPSt18_Rb_tree_node_base:
.LFB2592:
	.loc 2 794 7
	.cfi_startproc
	endbr64
	pushq	%rbp
	.cfi_def_cfa_offset 16
	.cfi_offset 6, -16
	movq	%rsp, %rbp
	.cfi_def_cfa_register 6
	movq	%rdi, -8(%rbp)
	.loc 2 795 52
	movq	-8(%rbp), %rax
	movq	16(%rax), %rax
	.loc 2 795 55
	popq	%rbp
	.cfi_def_cfa 7, 8
	ret
	.cfi_endproc
.LFE2592:
	.size	_ZNSt8_Rb_treeIPhSt4pairIKS0_P9func_stubESt10_Select1stIS5_ESt4lessIS0_ESaIS5_EE7_S_leftEPSt18_Rb_tree_node_base, .-_ZNSt8_Rb_treeIPhSt4pairIKS0_P9func_stubESt10_Select1stIS5_ESt4lessIS0_ESaIS5_EE7_S_leftEPSt18_Rb_tree_node_base
	.section	.text._ZNSt8_Rb_treeIPhSt4pairIKS0_P9func_stubESt10_Select1stIS5_ESt4lessIS0_ESaIS5_EE12_M_drop_nodeEPSt13_Rb_tree_nodeIS5_E,"axG",@progbits,_ZNSt8_Rb_treeIPhSt4pairIKS0_P9func_stubESt10_Select1stIS5_ESt4lessIS0_ESaIS5_EE12_M_drop_nodeEPSt13_Rb_tree_nodeIS5_E,comdat
	.align 2
	.weak	_ZNSt8_Rb_treeIPhSt4pairIKS0_P9func_stubESt10_Select1stIS5_ESt4lessIS0_ESaIS5_EE12_M_drop_nodeEPSt13_Rb_tree_nodeIS5_E
	.type	_ZNSt8_Rb_treeIPhSt4pairIKS0_P9func_stubESt10_Select1stIS5_ESt4lessIS0_ESaIS5_EE12_M_drop_nodeEPSt13_Rb_tree_nodeIS5_E, @function
_ZNSt8_Rb_treeIPhSt4pairIKS0_P9func_stubESt10_Select1stIS5_ESt4lessIS0_ESaIS5_EE12_M_drop_nodeEPSt13_Rb_tree_nodeIS5_E:
.LFB2593:
	.loc 2 648 7
	.cfi_startproc
	endbr64
	pushq	%rbp
	.cfi_def_cfa_offset 16
	.cfi_offset 6, -16
	movq	%rsp, %rbp
	.cfi_def_cfa_register 6
	subq	$16, %rsp
	movq	%rdi, -8(%rbp)
	movq	%rsi, -16(%rbp)
	.loc 2 650 2
	movq	-16(%rbp), %rdx
	movq	-8(%rbp), %rax
	movq	%rdx, %rsi
	movq	%rax, %rdi
	call	_ZNSt8_Rb_treeIPhSt4pairIKS0_P9func_stubESt10_Select1stIS5_ESt4lessIS0_ESaIS5_EE15_M_destroy_nodeEPSt13_Rb_tree_nodeIS5_E
	.loc 2 651 2
	movq	-16(%rbp), %rdx
	movq	-8(%rbp), %rax
	movq	%rdx, %rsi
	movq	%rax, %rdi
	call	_ZNSt8_Rb_treeIPhSt4pairIKS0_P9func_stubESt10_Select1stIS5_ESt4lessIS0_ESaIS5_EE11_M_put_nodeEPSt13_Rb_tree_nodeIS5_E
	.loc 2 652 7
	nop
	leave
	.cfi_def_cfa 7, 8
	ret
	.cfi_endproc
.LFE2593:
	.size	_ZNSt8_Rb_treeIPhSt4pairIKS0_P9func_stubESt10_Select1stIS5_ESt4lessIS0_ESaIS5_EE12_M_drop_nodeEPSt13_Rb_tree_nodeIS5_E, .-_ZNSt8_Rb_treeIPhSt4pairIKS0_P9func_stubESt10_Select1stIS5_ESt4lessIS0_ESaIS5_EE12_M_drop_nodeEPSt13_Rb_tree_nodeIS5_E
	.section	.text._ZNSt17_Rb_tree_iteratorISt4pairIKPhP9func_stubEEC2EPSt18_Rb_tree_node_base,"axG",@progbits,_ZNSt17_Rb_tree_iteratorISt4pairIKPhP9func_stubEEC5EPSt18_Rb_tree_node_base,comdat
	.align 2
	.weak	_ZNSt17_Rb_tree_iteratorISt4pairIKPhP9func_stubEEC2EPSt18_Rb_tree_node_base
	.type	_ZNSt17_Rb_tree_iteratorISt4pairIKPhP9func_stubEEC2EPSt18_Rb_tree_node_base, @function
_ZNSt17_Rb_tree_iteratorISt4pairIKPhP9func_stubEEC2EPSt18_Rb_tree_node_base:
.LFB2595:
	.loc 2 273 7
	.cfi_startproc
	endbr64
	pushq	%rbp
	.cfi_def_cfa_offset 16
	.cfi_offset 6, -16
	movq	%rsp, %rbp
	.cfi_def_cfa_register 6
	movq	%rdi, -8(%rbp)
	movq	%rsi, -16(%rbp)
.LBB18:
	.loc 2 274 20
	movq	-8(%rbp), %rax
	movq	-16(%rbp), %rdx
	movq	%rdx, (%rax)
.LBE18:
	.loc 2 274 24
	nop
	popq	%rbp
	.cfi_def_cfa 7, 8
	ret
	.cfi_endproc
.LFE2595:
	.size	_ZNSt17_Rb_tree_iteratorISt4pairIKPhP9func_stubEEC2EPSt18_Rb_tree_node_base, .-_ZNSt17_Rb_tree_iteratorISt4pairIKPhP9func_stubEEC2EPSt18_Rb_tree_node_base
	.weak	_ZNSt17_Rb_tree_iteratorISt4pairIKPhP9func_stubEEC1EPSt18_Rb_tree_node_base
	.set	_ZNSt17_Rb_tree_iteratorISt4pairIKPhP9func_stubEEC1EPSt18_Rb_tree_node_base,_ZNSt17_Rb_tree_iteratorISt4pairIKPhP9func_stubEEC2EPSt18_Rb_tree_node_base
	.section	.text._ZN9__gnu_cxx16__aligned_membufISt4pairIKPhP9func_stubEE6_M_ptrEv,"axG",@progbits,_ZN9__gnu_cxx16__aligned_membufISt4pairIKPhP9func_stubEE6_M_ptrEv,comdat
	.align 2
	.weak	_ZN9__gnu_cxx16__aligned_membufISt4pairIKPhP9func_stubEE6_M_ptrEv
	.type	_ZN9__gnu_cxx16__aligned_membufISt4pairIKPhP9func_stubEE6_M_ptrEv, @function
_ZN9__gnu_cxx16__aligned_membufISt4pairIKPhP9func_stubEE6_M_ptrEv:
.LFB2597:
	.file 9 "/usr/include/c++/9/ext/aligned_buffer.h"
	.loc 9 72 7
	.cfi_startproc
	endbr64
	pushq	%rbp
	.cfi_def_cfa_offset 16
	.cfi_offset 6, -16
	movq	%rsp, %rbp
	.cfi_def_cfa_register 6
	subq	$16, %rsp
	movq	%rdi, -8(%rbp)
	.loc 9 73 16
	movq	-8(%rbp), %rax
	movq	%rax, %rdi
	call	_ZN9__gnu_cxx16__aligned_membufISt4pairIKPhP9func_stubEE7_M_addrEv
	.loc 9 73 46
	leave
	.cfi_def_cfa 7, 8
	ret
	.cfi_endproc
.LFE2597:
	.size	_ZN9__gnu_cxx16__aligned_membufISt4pairIKPhP9func_stubEE6_M_ptrEv, .-_ZN9__gnu_cxx16__aligned_membufISt4pairIKPhP9func_stubEE6_M_ptrEv
	.section	.text._ZN4Stub6addrofIPhEES1_T_,"axG",@progbits,_ZN4Stub6addrofIPhEES1_T_,comdat
	.align 2
	.weak	_ZN4Stub6addrofIPhEES1_T_
	.type	_ZN4Stub6addrofIPhEES1_T_, @function
_ZN4Stub6addrofIPhEES1_T_:
.LFB2600:
	.loc 4 485 20
	.cfi_startproc
	endbr64
	pushq	%rbp
	.cfi_def_cfa_offset 16
	.cfi_offset 6, -16
	movq	%rsp, %rbp
	.cfi_def_cfa_register 6
	movq	%rdi, -24(%rbp)
	movq	%rsi, -32(%rbp)
	.loc 4 492 9
	movq	-32(%rbp), %rax
	movq	%rax, -8(%rbp)
	.loc 4 493 19
	movq	-8(%rbp), %rax
	.loc 4 494 5
	popq	%rbp
	.cfi_def_cfa 7, 8
	ret
	.cfi_endproc
.LFE2600:
	.size	_ZN4Stub6addrofIPhEES1_T_, .-_ZN4Stub6addrofIPhEES1_T_
	.section	.text._ZNSt3mapIPhP9func_stubSt4lessIS0_ESaISt4pairIKS0_S2_EEE4findERS6_,"axG",@progbits,_ZNSt3mapIPhP9func_stubSt4lessIS0_ESaISt4pairIKS0_S2_EEE4findERS6_,comdat
	.align 2
	.weak	_ZNSt3mapIPhP9func_stubSt4lessIS0_ESaISt4pairIKS0_S2_EEE4findERS6_
	.type	_ZNSt3mapIPhP9func_stubSt4lessIS0_ESaISt4pairIKS0_S2_EEE4findERS6_, @function
_ZNSt3mapIPhP9func_stubSt4lessIS0_ESaISt4pairIKS0_S2_EEE4findERS6_:
.LFB2601:
	.loc 3 1168 7
	.cfi_startproc
	endbr64
	pushq	%rbp
	.cfi_def_cfa_offset 16
	.cfi_offset 6, -16
	movq	%rsp, %rbp
	.cfi_def_cfa_register 6
	subq	$16, %rsp
	movq	%rdi, -8(%rbp)
	movq	%rsi, -16(%rbp)
	.loc 3 1169 29
	movq	-8(%rbp), %rax
	movq	-16(%rbp), %rdx
	movq	%rdx, %rsi
	movq	%rax, %rdi
	call	_ZNSt8_Rb_treeIPhSt4pairIKS0_P9func_stubESt10_Select1stIS5_ESt4lessIS0_ESaIS5_EE4findERS2_
	.loc 3 1169 32
	leave
	.cfi_def_cfa 7, 8
	ret
	.cfi_endproc
.LFE2601:
	.size	_ZNSt3mapIPhP9func_stubSt4lessIS0_ESaISt4pairIKS0_S2_EEE4findERS6_, .-_ZNSt3mapIPhP9func_stubSt4lessIS0_ESaISt4pairIKS0_S2_EEE4findERS6_
	.section	.text._ZSteqRKSt17_Rb_tree_iteratorISt4pairIKPhP9func_stubEES8_,"axG",@progbits,_ZSteqRKSt17_Rb_tree_iteratorISt4pairIKPhP9func_stubEES8_,comdat
	.weak	_ZSteqRKSt17_Rb_tree_iteratorISt4pairIKPhP9func_stubEES8_
	.type	_ZSteqRKSt17_Rb_tree_iteratorISt4pairIKPhP9func_stubEES8_, @function
_ZSteqRKSt17_Rb_tree_iteratorISt4pairIKPhP9func_stubEES8_:
.LFB2602:
	.loc 2 315 7
	.cfi_startproc
	endbr64
	pushq	%rbp
	.cfi_def_cfa_offset 16
	.cfi_offset 6, -16
	movq	%rsp, %rbp
	.cfi_def_cfa_register 6
	movq	%rdi, -8(%rbp)
	movq	%rsi, -16(%rbp)
	.loc 2 316 20
	movq	-8(%rbp), %rax
	movq	(%rax), %rdx
	.loc 2 316 35
	movq	-16(%rbp), %rax
	movq	(%rax), %rax
	cmpq	%rax, %rdx
	sete	%al
	.loc 2 316 44
	popq	%rbp
	.cfi_def_cfa 7, 8
	ret
	.cfi_endproc
.LFE2602:
	.size	_ZSteqRKSt17_Rb_tree_iteratorISt4pairIKPhP9func_stubEES8_, .-_ZSteqRKSt17_Rb_tree_iteratorISt4pairIKPhP9func_stubEES8_
	.section	.text._ZNSt3mapIPhP9func_stubSt4lessIS0_ESaISt4pairIKS0_S2_EEE5eraseB5cxx11ESt17_Rb_tree_iteratorIS7_E,"axG",@progbits,_ZNSt3mapIPhP9func_stubSt4lessIS0_ESaISt4pairIKS0_S2_EEE5eraseB5cxx11ESt17_Rb_tree_iteratorIS7_E,comdat
	.align 2
	.weak	_ZNSt3mapIPhP9func_stubSt4lessIS0_ESaISt4pairIKS0_S2_EEE5eraseB5cxx11ESt17_Rb_tree_iteratorIS7_E
	.type	_ZNSt3mapIPhP9func_stubSt4lessIS0_ESaISt4pairIKS0_S2_EEE5eraseB5cxx11ESt17_Rb_tree_iteratorIS7_E, @function
_ZNSt3mapIPhP9func_stubSt4lessIS0_ESaISt4pairIKS0_S2_EEE5eraseB5cxx11ESt17_Rb_tree_iteratorIS7_E:
.LFB2603:
	.loc 3 1036 7
	.cfi_startproc
	endbr64
	pushq	%rbp
	.cfi_def_cfa_offset 16
	.cfi_offset 6, -16
	movq	%rsp, %rbp
	.cfi_def_cfa_register 6
	subq	$16, %rsp
	movq	%rdi, -8(%rbp)
	movq	%rsi, -16(%rbp)
	.loc 3 1037 37
	movq	-8(%rbp), %rax
	movq	-16(%rbp), %rdx
	movq	%rdx, %rsi
	movq	%rax, %rdi
	call	_ZNSt8_Rb_treeIPhSt4pairIKS0_P9func_stubESt10_Select1stIS5_ESt4lessIS0_ESaIS5_EE5eraseB5cxx11ESt17_Rb_tree_iteratorIS5_E
	.loc 3 1037 40
	leave
	.cfi_def_cfa 7, 8
	ret
	.cfi_endproc
.LFE2603:
	.size	_ZNSt3mapIPhP9func_stubSt4lessIS0_ESaISt4pairIKS0_S2_EEE5eraseB5cxx11ESt17_Rb_tree_iteratorIS7_E, .-_ZNSt3mapIPhP9func_stubSt4lessIS0_ESaISt4pairIKS0_S2_EEE5eraseB5cxx11ESt17_Rb_tree_iteratorIS7_E
	.section	.text._ZSt7forwardIRPhEOT_RNSt16remove_referenceIS2_E4typeE,"axG",@progbits,_ZSt7forwardIRPhEOT_RNSt16remove_referenceIS2_E4typeE,comdat
	.weak	_ZSt7forwardIRPhEOT_RNSt16remove_referenceIS2_E4typeE
	.type	_ZSt7forwardIRPhEOT_RNSt16remove_referenceIS2_E4typeE, @function
_ZSt7forwardIRPhEOT_RNSt16remove_referenceIS2_E4typeE:
.LFB2604:
	.file 10 "/usr/include/c++/9/bits/move.h"
	.loc 10 74 5
	.cfi_startproc
	endbr64
	pushq	%rbp
	.cfi_def_cfa_offset 16
	.cfi_offset 6, -16
	movq	%rsp, %rbp
	.cfi_def_cfa_register 6
	movq	%rdi, -8(%rbp)
	.loc 10 75 36
	movq	-8(%rbp), %rax
	.loc 10 75 39
	popq	%rbp
	.cfi_def_cfa 7, 8
	ret
	.cfi_endproc
.LFE2604:
	.size	_ZSt7forwardIRPhEOT_RNSt16remove_referenceIS2_E4typeE, .-_ZSt7forwardIRPhEOT_RNSt16remove_referenceIS2_E4typeE
	.section	.text._ZSt7forwardIRP9func_stubEOT_RNSt16remove_referenceIS3_E4typeE,"axG",@progbits,_ZSt7forwardIRP9func_stubEOT_RNSt16remove_referenceIS3_E4typeE,comdat
	.weak	_ZSt7forwardIRP9func_stubEOT_RNSt16remove_referenceIS3_E4typeE
	.type	_ZSt7forwardIRP9func_stubEOT_RNSt16remove_referenceIS3_E4typeE, @function
_ZSt7forwardIRP9func_stubEOT_RNSt16remove_referenceIS3_E4typeE:
.LFB2605:
	.loc 10 74 5
	.cfi_startproc
	endbr64
	pushq	%rbp
	.cfi_def_cfa_offset 16
	.cfi_offset 6, -16
	movq	%rsp, %rbp
	.cfi_def_cfa_register 6
	movq	%rdi, -8(%rbp)
	.loc 10 75 36
	movq	-8(%rbp), %rax
	.loc 10 75 39
	popq	%rbp
	.cfi_def_cfa 7, 8
	ret
	.cfi_endproc
.LFE2605:
	.size	_ZSt7forwardIRP9func_stubEOT_RNSt16remove_referenceIS3_E4typeE, .-_ZSt7forwardIRP9func_stubEOT_RNSt16remove_referenceIS3_E4typeE
	.section	.text._ZSt7forwardISt4pairIPhP9func_stubEEOT_RNSt16remove_referenceIS5_E4typeE,"axG",@progbits,_ZSt7forwardISt4pairIPhP9func_stubEEOT_RNSt16remove_referenceIS5_E4typeE,comdat
	.weak	_ZSt7forwardISt4pairIPhP9func_stubEEOT_RNSt16remove_referenceIS5_E4typeE
	.type	_ZSt7forwardISt4pairIPhP9func_stubEEOT_RNSt16remove_referenceIS5_E4typeE, @function
_ZSt7forwardISt4pairIPhP9func_stubEEOT_RNSt16remove_referenceIS5_E4typeE:
.LFB2606:
	.loc 10 74 5
	.cfi_startproc
	endbr64
	pushq	%rbp
	.cfi_def_cfa_offset 16
	.cfi_offset 6, -16
	movq	%rsp, %rbp
	.cfi_def_cfa_register 6
	movq	%rdi, -8(%rbp)
	.loc 10 75 36
	movq	-8(%rbp), %rax
	.loc 10 75 39
	popq	%rbp
	.cfi_def_cfa 7, 8
	ret
	.cfi_endproc
.LFE2606:
	.size	_ZSt7forwardISt4pairIPhP9func_stubEEOT_RNSt16remove_referenceIS5_E4typeE, .-_ZSt7forwardISt4pairIPhP9func_stubEEOT_RNSt16remove_referenceIS5_E4typeE
	.section	.text._ZNSt8_Rb_treeIPhSt4pairIKS0_P9func_stubESt10_Select1stIS5_ESt4lessIS0_ESaIS5_EE17_M_emplace_uniqueIJS1_IS0_S4_EEEES1_ISt17_Rb_tree_iteratorIS5_EbEDpOT_,"axG",@progbits,_ZNSt8_Rb_treeIPhSt4pairIKS0_P9func_stubESt10_Select1stIS5_ESt4lessIS0_ESaIS5_EE17_M_emplace_uniqueIJS1_IS0_S4_EEEES1_ISt17_Rb_tree_iteratorIS5_EbEDpOT_,comdat
	.align 2
	.weak	_ZNSt8_Rb_treeIPhSt4pairIKS0_P9func_stubESt10_Select1stIS5_ESt4lessIS0_ESaIS5_EE17_M_emplace_uniqueIJS1_IS0_S4_EEEES1_ISt17_Rb_tree_iteratorIS5_EbEDpOT_
	.type	_ZNSt8_Rb_treeIPhSt4pairIKS0_P9func_stubESt10_Select1stIS5_ESt4lessIS0_ESaIS5_EE17_M_emplace_uniqueIJS1_IS0_S4_EEEES1_ISt17_Rb_tree_iteratorIS5_EbEDpOT_, @function
_ZNSt8_Rb_treeIPhSt4pairIKS0_P9func_stubESt10_Select1stIS5_ESt4lessIS0_ESaIS5_EE17_M_emplace_uniqueIJS1_IS0_S4_EEEES1_ISt17_Rb_tree_iteratorIS5_EbEDpOT_:
.LFB2607:
	.loc 2 2410 7
	.cfi_startproc
	.cfi_personality 0x9b,DW.ref.__gxx_personality_v0
	.cfi_lsda 0x1b,.LLSDA2607
	endbr64
	pushq	%rbp
	.cfi_def_cfa_offset 16
	.cfi_offset 6, -16
	movq	%rsp, %rbp
	.cfi_def_cfa_register 6
	pushq	%rbx
	subq	$104, %rsp
	.cfi_offset 3, -24
	movq	%rdi, -104(%rbp)
	movq	%rsi, -112(%rbp)
	.loc 2 2410 7
	movq	%fs:40, %rax
	movq	%rax, -24(%rbp)
	xorl	%eax, %eax
	.loc 2 2413 13
	movq	-112(%rbp), %rax
	movq	%rax, %rdi
	call	_ZSt7forwardISt4pairIPhP9func_stubEEOT_RNSt16remove_referenceIS5_E4typeE
	movq	%rax, %rdx
	movq	-104(%rbp), %rax
	movq	%rdx, %rsi
	movq	%rax, %rdi
.LEHB2:
	call	_ZNSt8_Rb_treeIPhSt4pairIKS0_P9func_stubESt10_Select1stIS5_ESt4lessIS0_ESaIS5_EE14_M_create_nodeIJS1_IS0_S4_EEEEPSt13_Rb_tree_nodeIS5_EDpOT_
.LEHE2:
	movq	%rax, -72(%rbp)
.LBB19:
	.loc 2 2418 50
	movq	-72(%rbp), %rax
	movq	%rax, %rdi
.LEHB3:
	call	_ZNSt8_Rb_treeIPhSt4pairIKS0_P9func_stubESt10_Select1stIS5_ESt4lessIS0_ESaIS5_EE6_S_keyEPKSt13_Rb_tree_nodeIS5_E
	movq	%rax, %rdx
	.loc 2 2418 11
	movq	-104(%rbp), %rax
	movq	%rdx, %rsi
	movq	%rax, %rdi
	call	_ZNSt8_Rb_treeIPhSt4pairIKS0_P9func_stubESt10_Select1stIS5_ESt4lessIS0_ESaIS5_EE24_M_get_insert_unique_posERS2_
	.loc 2 2418 11 is_stmt 0 discriminator 1
	movq	%rax, -64(%rbp)
	movq	%rdx, -56(%rbp)
	.loc 2 2419 16 is_stmt 1 discriminator 1
	movq	-56(%rbp), %rax
	.loc 2 2419 6 discriminator 1
	testq	%rax, %rax
	je	.L132
	.loc 2 2420 72
	movb	$1, -81(%rbp)
	.loc 2 2420 15
	movq	-56(%rbp), %rdx
	movq	-64(%rbp), %rsi
	movq	-72(%rbp), %rcx
	movq	-104(%rbp), %rax
	movq	%rax, %rdi
	call	_ZNSt8_Rb_treeIPhSt4pairIKS0_P9func_stubESt10_Select1stIS5_ESt4lessIS0_ESaIS5_EE14_M_insert_nodeEPSt18_Rb_tree_node_baseSD_PSt13_Rb_tree_nodeIS5_E
.LEHE3:
	movq	%rax, -80(%rbp)
	.loc 2 2420 72
	leaq	-81(%rbp), %rdx
	leaq	-80(%rbp), %rcx
	leaq	-48(%rbp), %rax
	movq	%rcx, %rsi
	movq	%rax, %rdi
	call	_ZNSt4pairISt17_Rb_tree_iteratorIS_IKPhP9func_stubEEbEC1IS6_bLb1EEEOT_OT0_
	movq	-48(%rbp), %rax
	movq	-40(%rbp), %rdx
	jmp	.L134
.L132:
	.loc 2 2422 6
	movq	-72(%rbp), %rdx
	movq	-104(%rbp), %rax
	movq	%rdx, %rsi
	movq	%rax, %rdi
	call	_ZNSt8_Rb_treeIPhSt4pairIKS0_P9func_stubESt10_Select1stIS5_ESt4lessIS0_ESaIS5_EE12_M_drop_nodeEPSt13_Rb_tree_nodeIS5_E
	.loc 2 2423 46
	movb	$0, -81(%rbp)
	movq	-64(%rbp), %rdx
	leaq	-80(%rbp), %rax
	movq	%rdx, %rsi
	movq	%rax, %rdi
	call	_ZNSt17_Rb_tree_iteratorISt4pairIKPhP9func_stubEEC1EPSt18_Rb_tree_node_base
	leaq	-81(%rbp), %rdx
	leaq	-80(%rbp), %rcx
	leaq	-48(%rbp), %rax
	movq	%rcx, %rsi
	movq	%rax, %rdi
	call	_ZNSt4pairISt17_Rb_tree_iteratorIS_IKPhP9func_stubEEbEC1IS6_bLb1EEEOT_OT0_
	movq	-48(%rbp), %rax
	movq	-40(%rbp), %rdx
.L134:
.LBE19:
	.loc 2 2430 7 discriminator 1
	movq	-24(%rbp), %rbx
	xorq	%fs:40, %rbx
	je	.L137
	jmp	.L140
.L138:
	endbr64
	.loc 2 2425 2
	movq	%rax, %rdi
	call	__cxa_begin_catch@PLT
	.loc 2 2427 6
	movq	-72(%rbp), %rdx
	movq	-104(%rbp), %rax
	movq	%rdx, %rsi
	movq	%rax, %rdi
	call	_ZNSt8_Rb_treeIPhSt4pairIKS0_P9func_stubESt10_Select1stIS5_ESt4lessIS0_ESaIS5_EE12_M_drop_nodeEPSt13_Rb_tree_nodeIS5_E
.LEHB4:
	.loc 2 2428 6
	call	__cxa_rethrow@PLT
.LEHE4:
.L139:
	endbr64
	movq	%rax, %rbx
	.loc 2 2425 2
	call	__cxa_end_catch@PLT
	movq	%rbx, %rax
	movq	%rax, %rdi
.LEHB5:
	call	_Unwind_Resume@PLT
.LEHE5:
.L140:
	.loc 2 2430 7
	call	__stack_chk_fail@PLT
.L137:
	addq	$104, %rsp
	popq	%rbx
	popq	%rbp
	.cfi_def_cfa 7, 8
	ret
	.cfi_endproc
.LFE2607:
	.section	.gcc_except_table
	.align 4
.LLSDA2607:
	.byte	0xff
	.byte	0x9b
	.uleb128 .LLSDATT2607-.LLSDATTD2607
.LLSDATTD2607:
	.byte	0x1
	.uleb128 .LLSDACSE2607-.LLSDACSB2607
.LLSDACSB2607:
	.uleb128 .LEHB2-.LFB2607
	.uleb128 .LEHE2-.LEHB2
	.uleb128 0
	.uleb128 0
	.uleb128 .LEHB3-.LFB2607
	.uleb128 .LEHE3-.LEHB3
	.uleb128 .L138-.LFB2607
	.uleb128 0x1
	.uleb128 .LEHB4-.LFB2607
	.uleb128 .LEHE4-.LEHB4
	.uleb128 .L139-.LFB2607
	.uleb128 0
	.uleb128 .LEHB5-.LFB2607
	.uleb128 .LEHE5-.LEHB5
	.uleb128 0
	.uleb128 0
.LLSDACSE2607:
	.byte	0x1
	.byte	0
	.align 4
	.long	0

.LLSDATT2607:
	.section	.text._ZNSt8_Rb_treeIPhSt4pairIKS0_P9func_stubESt10_Select1stIS5_ESt4lessIS0_ESaIS5_EE17_M_emplace_uniqueIJS1_IS0_S4_EEEES1_ISt17_Rb_tree_iteratorIS5_EbEDpOT_,"axG",@progbits,_ZNSt8_Rb_treeIPhSt4pairIKS0_P9func_stubESt10_Select1stIS5_ESt4lessIS0_ESaIS5_EE17_M_emplace_uniqueIJS1_IS0_S4_EEEES1_ISt17_Rb_tree_iteratorIS5_EbEDpOT_,comdat
	.size	_ZNSt8_Rb_treeIPhSt4pairIKS0_P9func_stubESt10_Select1stIS5_ESt4lessIS0_ESaIS5_EE17_M_emplace_uniqueIJS1_IS0_S4_EEEES1_ISt17_Rb_tree_iteratorIS5_EbEDpOT_, .-_ZNSt8_Rb_treeIPhSt4pairIKS0_P9func_stubESt10_Select1stIS5_ESt4lessIS0_ESaIS5_EE17_M_emplace_uniqueIJS1_IS0_S4_EEEES1_ISt17_Rb_tree_iteratorIS5_EbEDpOT_
	.section	.text._ZNSt8_Rb_treeIPhSt4pairIKS0_P9func_stubESt10_Select1stIS5_ESt4lessIS0_ESaIS5_EE15_M_destroy_nodeEPSt13_Rb_tree_nodeIS5_E,"axG",@progbits,_ZNSt8_Rb_treeIPhSt4pairIKS0_P9func_stubESt10_Select1stIS5_ESt4lessIS0_ESaIS5_EE15_M_destroy_nodeEPSt13_Rb_tree_nodeIS5_E,comdat
	.align 2
	.weak	_ZNSt8_Rb_treeIPhSt4pairIKS0_P9func_stubESt10_Select1stIS5_ESt4lessIS0_ESaIS5_EE15_M_destroy_nodeEPSt13_Rb_tree_nodeIS5_E
	.type	_ZNSt8_Rb_treeIPhSt4pairIKS0_P9func_stubESt10_Select1stIS5_ESt4lessIS0_ESaIS5_EE15_M_destroy_nodeEPSt13_Rb_tree_nodeIS5_E, @function
_ZNSt8_Rb_treeIPhSt4pairIKS0_P9func_stubESt10_Select1stIS5_ESt4lessIS0_ESaIS5_EE15_M_destroy_nodeEPSt13_Rb_tree_nodeIS5_E:
.LFB2654:
	.loc 2 637 7
	.cfi_startproc
	endbr64
	pushq	%rbp
	.cfi_def_cfa_offset 16
	.cfi_offset 6, -16
	movq	%rsp, %rbp
	.cfi_def_cfa_register 6
	pushq	%rbx
	subq	$24, %rsp
	.cfi_offset 3, -24
	movq	%rdi, -24(%rbp)
	movq	%rsi, -32(%rbp)
	.loc 2 642 24
	movq	-32(%rbp), %rax
	movq	%rax, %rdi
	call	_ZNSt13_Rb_tree_nodeISt4pairIKPhP9func_stubEE9_M_valptrEv
	movq	%rax, %rbx
	movq	-24(%rbp), %rax
	movq	%rax, %rdi
	call	_ZNSt8_Rb_treeIPhSt4pairIKS0_P9func_stubESt10_Select1stIS5_ESt4lessIS0_ESaIS5_EE21_M_get_Node_allocatorEv
	movq	%rbx, %rsi
	movq	%rax, %rdi
	call	_ZNSt16allocator_traitsISaISt13_Rb_tree_nodeISt4pairIKPhP9func_stubEEEE7destroyIS6_EEvRS8_PT_
	.loc 2 645 7
	nop
	addq	$24, %rsp
	popq	%rbx
	popq	%rbp
	.cfi_def_cfa 7, 8
	ret
	.cfi_endproc
.LFE2654:
	.size	_ZNSt8_Rb_treeIPhSt4pairIKS0_P9func_stubESt10_Select1stIS5_ESt4lessIS0_ESaIS5_EE15_M_destroy_nodeEPSt13_Rb_tree_nodeIS5_E, .-_ZNSt8_Rb_treeIPhSt4pairIKS0_P9func_stubESt10_Select1stIS5_ESt4lessIS0_ESaIS5_EE15_M_destroy_nodeEPSt13_Rb_tree_nodeIS5_E
	.section	.text._ZNSt8_Rb_treeIPhSt4pairIKS0_P9func_stubESt10_Select1stIS5_ESt4lessIS0_ESaIS5_EE11_M_put_nodeEPSt13_Rb_tree_nodeIS5_E,"axG",@progbits,_ZNSt8_Rb_treeIPhSt4pairIKS0_P9func_stubESt10_Select1stIS5_ESt4lessIS0_ESaIS5_EE11_M_put_nodeEPSt13_Rb_tree_nodeIS5_E,comdat
	.align 2
	.weak	_ZNSt8_Rb_treeIPhSt4pairIKS0_P9func_stubESt10_Select1stIS5_ESt4lessIS0_ESaIS5_EE11_M_put_nodeEPSt13_Rb_tree_nodeIS5_E
	.type	_ZNSt8_Rb_treeIPhSt4pairIKS0_P9func_stubESt10_Select1stIS5_ESt4lessIS0_ESaIS5_EE11_M_put_nodeEPSt13_Rb_tree_nodeIS5_E, @function
_ZNSt8_Rb_treeIPhSt4pairIKS0_P9func_stubESt10_Select1stIS5_ESt4lessIS0_ESaIS5_EE11_M_put_nodeEPSt13_Rb_tree_nodeIS5_E:
.LFB2655:
	.loc 2 583 7
	.cfi_startproc
	.cfi_personality 0x9b,DW.ref.__gxx_personality_v0
	.cfi_lsda 0x1b,.LLSDA2655
	endbr64
	pushq	%rbp
	.cfi_def_cfa_offset 16
	.cfi_offset 6, -16
	movq	%rsp, %rbp
	.cfi_def_cfa_register 6
	subq	$16, %rsp
	movq	%rdi, -8(%rbp)
	movq	%rsi, -16(%rbp)
	.loc 2 584 34
	movq	-8(%rbp), %rax
	movq	%rax, %rdi
	call	_ZNSt8_Rb_treeIPhSt4pairIKS0_P9func_stubESt10_Select1stIS5_ESt4lessIS0_ESaIS5_EE21_M_get_Node_allocatorEv
	movq	%rax, %rcx
	movq	-16(%rbp), %rax
	movl	$1, %edx
	movq	%rax, %rsi
	movq	%rcx, %rdi
	call	_ZNSt16allocator_traitsISaISt13_Rb_tree_nodeISt4pairIKPhP9func_stubEEEE10deallocateERS8_PS7_m
	.loc 2 584 69
	nop
	leave
	.cfi_def_cfa 7, 8
	ret
	.cfi_endproc
.LFE2655:
	.section	.gcc_except_table
.LLSDA2655:
	.byte	0xff
	.byte	0xff
	.byte	0x1
	.uleb128 .LLSDACSE2655-.LLSDACSB2655
.LLSDACSB2655:
.LLSDACSE2655:
	.section	.text._ZNSt8_Rb_treeIPhSt4pairIKS0_P9func_stubESt10_Select1stIS5_ESt4lessIS0_ESaIS5_EE11_M_put_nodeEPSt13_Rb_tree_nodeIS5_E,"axG",@progbits,_ZNSt8_Rb_treeIPhSt4pairIKS0_P9func_stubESt10_Select1stIS5_ESt4lessIS0_ESaIS5_EE11_M_put_nodeEPSt13_Rb_tree_nodeIS5_E,comdat
	.size	_ZNSt8_Rb_treeIPhSt4pairIKS0_P9func_stubESt10_Select1stIS5_ESt4lessIS0_ESaIS5_EE11_M_put_nodeEPSt13_Rb_tree_nodeIS5_E, .-_ZNSt8_Rb_treeIPhSt4pairIKS0_P9func_stubESt10_Select1stIS5_ESt4lessIS0_ESaIS5_EE11_M_put_nodeEPSt13_Rb_tree_nodeIS5_E
	.section	.text._ZN9__gnu_cxx16__aligned_membufISt4pairIKPhP9func_stubEE7_M_addrEv,"axG",@progbits,_ZN9__gnu_cxx16__aligned_membufISt4pairIKPhP9func_stubEE7_M_addrEv,comdat
	.align 2
	.weak	_ZN9__gnu_cxx16__aligned_membufISt4pairIKPhP9func_stubEE7_M_addrEv
	.type	_ZN9__gnu_cxx16__aligned_membufISt4pairIKPhP9func_stubEE7_M_addrEv, @function
_ZN9__gnu_cxx16__aligned_membufISt4pairIKPhP9func_stubEE7_M_addrEv:
.LFB2656:
	.loc 9 64 7
	.cfi_startproc
	endbr64
	pushq	%rbp
	.cfi_def_cfa_offset 16
	.cfi_offset 6, -16
	movq	%rsp, %rbp
	.cfi_def_cfa_register 6
	movq	%rdi, -8(%rbp)
	.loc 9 65 46
	movq	-8(%rbp), %rax
	.loc 9 65 49
	popq	%rbp
	.cfi_def_cfa 7, 8
	ret
	.cfi_endproc
.LFE2656:
	.size	_ZN9__gnu_cxx16__aligned_membufISt4pairIKPhP9func_stubEE7_M_addrEv, .-_ZN9__gnu_cxx16__aligned_membufISt4pairIKPhP9func_stubEE7_M_addrEv
	.section	.text._ZNSt8_Rb_treeIPhSt4pairIKS0_P9func_stubESt10_Select1stIS5_ESt4lessIS0_ESaIS5_EE4findERS2_,"axG",@progbits,_ZNSt8_Rb_treeIPhSt4pairIKS0_P9func_stubESt10_Select1stIS5_ESt4lessIS0_ESaIS5_EE4findERS2_,comdat
	.align 2
	.weak	_ZNSt8_Rb_treeIPhSt4pairIKS0_P9func_stubESt10_Select1stIS5_ESt4lessIS0_ESaIS5_EE4findERS2_
	.type	_ZNSt8_Rb_treeIPhSt4pairIKS0_P9func_stubESt10_Select1stIS5_ESt4lessIS0_ESaIS5_EE4findERS2_, @function
_ZNSt8_Rb_treeIPhSt4pairIKS0_P9func_stubESt10_Select1stIS5_ESt4lessIS0_ESaIS5_EE4findERS2_:
.LFB2657:
	.loc 2 2559 5
	.cfi_startproc
	endbr64
	pushq	%rbp
	.cfi_def_cfa_offset 16
	.cfi_offset 6, -16
	movq	%rsp, %rbp
	.cfi_def_cfa_register 6
	pushq	%rbx
	subq	$56, %rsp
	.cfi_offset 3, -24
	movq	%rdi, -56(%rbp)
	movq	%rsi, -64(%rbp)
	.loc 2 2559 5
	movq	%fs:40, %rax
	movq	%rax, -24(%rbp)
	xorl	%eax, %eax
	.loc 2 2562 16
	movq	-56(%rbp), %rax
	movq	%rax, %rdi
	call	_ZNSt8_Rb_treeIPhSt4pairIKS0_P9func_stubESt10_Select1stIS5_ESt4lessIS0_ESaIS5_EE6_M_endEv
	movq	%rax, %rbx
	movq	-56(%rbp), %rax
	movq	%rax, %rdi
	call	_ZNSt8_Rb_treeIPhSt4pairIKS0_P9func_stubESt10_Select1stIS5_ESt4lessIS0_ESaIS5_EE8_M_beginEv
	movq	%rax, %rsi
	movq	-64(%rbp), %rdx
	movq	-56(%rbp), %rax
	movq	%rdx, %rcx
	movq	%rbx, %rdx
	movq	%rax, %rdi
	call	_ZNSt8_Rb_treeIPhSt4pairIKS0_P9func_stubESt10_Select1stIS5_ESt4lessIS0_ESaIS5_EE14_M_lower_boundEPSt13_Rb_tree_nodeIS5_EPSt18_Rb_tree_node_baseRS2_
	movq	%rax, -40(%rbp)
	.loc 2 2563 19
	movq	-56(%rbp), %rax
	movq	%rax, %rdi
	call	_ZNSt8_Rb_treeIPhSt4pairIKS0_P9func_stubESt10_Select1stIS5_ESt4lessIS0_ESaIS5_EE3endEv
	movq	%rax, -32(%rbp)
	leaq	-32(%rbp), %rdx
	leaq	-40(%rbp), %rax
	movq	%rdx, %rsi
	movq	%rax, %rdi
	call	_ZSteqRKSt17_Rb_tree_iteratorISt4pairIKPhP9func_stubEES8_
	.loc 2 2565 28
	testb	%al, %al
	jne	.L146
	.loc 2 2564 8 discriminator 2
	movq	-56(%rbp), %rbx
	.loc 2 2565 17 discriminator 2
	movq	-40(%rbp), %rax
	.loc 2 2565 12 discriminator 2
	movq	%rax, %rdi
	call	_ZNSt8_Rb_treeIPhSt4pairIKS0_P9func_stubESt10_Select1stIS5_ESt4lessIS0_ESaIS5_EE6_S_keyEPKSt18_Rb_tree_node_base
	.loc 2 2564 8 discriminator 2
	movq	(%rax), %rdx
	movq	-64(%rbp), %rax
	movq	(%rax), %rax
	movq	%rax, %rsi
	movq	%rbx, %rdi
	call	_ZNKSt4lessIPhEclES0_S0_
	testb	%al, %al
	je	.L147
.L146:
	.loc 2 2565 28 discriminator 1
	movq	-56(%rbp), %rax
	movq	%rax, %rdi
	call	_ZNSt8_Rb_treeIPhSt4pairIKS0_P9func_stubESt10_Select1stIS5_ESt4lessIS0_ESaIS5_EE3endEv
	.loc 2 2565 38 discriminator 1
	jmp	.L149
.L147:
	.loc 2 2565 38 is_stmt 0
	movq	-40(%rbp), %rax
.L149:
	.loc 2 2566 5 is_stmt 1
	movq	-24(%rbp), %rcx
	xorq	%fs:40, %rcx
	je	.L150
	call	__stack_chk_fail@PLT
.L150:
	addq	$56, %rsp
	popq	%rbx
	popq	%rbp
	.cfi_def_cfa 7, 8
	ret
	.cfi_endproc
.LFE2657:
	.size	_ZNSt8_Rb_treeIPhSt4pairIKS0_P9func_stubESt10_Select1stIS5_ESt4lessIS0_ESaIS5_EE4findERS2_, .-_ZNSt8_Rb_treeIPhSt4pairIKS0_P9func_stubESt10_Select1stIS5_ESt4lessIS0_ESaIS5_EE4findERS2_
	.section	.text._ZNSt8_Rb_treeIPhSt4pairIKS0_P9func_stubESt10_Select1stIS5_ESt4lessIS0_ESaIS5_EE5eraseB5cxx11ESt17_Rb_tree_iteratorIS5_E,"axG",@progbits,_ZNSt8_Rb_treeIPhSt4pairIKS0_P9func_stubESt10_Select1stIS5_ESt4lessIS0_ESaIS5_EE5eraseB5cxx11ESt17_Rb_tree_iteratorIS5_E,comdat
	.align 2
	.weak	_ZNSt8_Rb_treeIPhSt4pairIKS0_P9func_stubESt10_Select1stIS5_ESt4lessIS0_ESaIS5_EE5eraseB5cxx11ESt17_Rb_tree_iteratorIS5_E
	.type	_ZNSt8_Rb_treeIPhSt4pairIKS0_P9func_stubESt10_Select1stIS5_ESt4lessIS0_ESaIS5_EE5eraseB5cxx11ESt17_Rb_tree_iteratorIS5_E, @function
_ZNSt8_Rb_treeIPhSt4pairIKS0_P9func_stubESt10_Select1stIS5_ESt4lessIS0_ESaIS5_EE5eraseB5cxx11ESt17_Rb_tree_iteratorIS5_E:
.LFB2658:
	.loc 2 1220 7
	.cfi_startproc
	endbr64
	pushq	%rbp
	.cfi_def_cfa_offset 16
	.cfi_offset 6, -16
	movq	%rsp, %rbp
	.cfi_def_cfa_register 6
	subq	$48, %rsp
	movq	%rdi, -40(%rbp)
	movq	%rsi, -48(%rbp)
	.loc 2 1220 7
	movq	%fs:40, %rax
	movq	%rax, -8(%rbp)
	xorl	%eax, %eax
	.loc 2 1223 11
	movq	-48(%rbp), %rax
	movq	%rax, -24(%rbp)
	.loc 2 1224 2
	leaq	-24(%rbp), %rax
	movq	%rax, %rdi
	call	_ZNSt17_Rb_tree_iteratorISt4pairIKPhP9func_stubEEppEv
	.loc 2 1225 2
	leaq	-48(%rbp), %rdx
	leaq	-16(%rbp), %rax
	movq	%rdx, %rsi
	movq	%rax, %rdi
	call	_ZNSt23_Rb_tree_const_iteratorISt4pairIKPhP9func_stubEEC1ERKSt17_Rb_tree_iteratorIS5_E
	movq	-16(%rbp), %rdx
	movq	-40(%rbp), %rax
	movq	%rdx, %rsi
	movq	%rax, %rdi
	call	_ZNSt8_Rb_treeIPhSt4pairIKS0_P9func_stubESt10_Select1stIS5_ESt4lessIS0_ESaIS5_EE12_M_erase_auxESt23_Rb_tree_const_iteratorIS5_E
	.loc 2 1226 9
	movq	-24(%rbp), %rax
	.loc 2 1227 7
	movq	-8(%rbp), %rcx
	xorq	%fs:40, %rcx
	je	.L153
	call	__stack_chk_fail@PLT
.L153:
	leave
	.cfi_def_cfa 7, 8
	ret
	.cfi_endproc
.LFE2658:
	.size	_ZNSt8_Rb_treeIPhSt4pairIKS0_P9func_stubESt10_Select1stIS5_ESt4lessIS0_ESaIS5_EE5eraseB5cxx11ESt17_Rb_tree_iteratorIS5_E, .-_ZNSt8_Rb_treeIPhSt4pairIKS0_P9func_stubESt10_Select1stIS5_ESt4lessIS0_ESaIS5_EE5eraseB5cxx11ESt17_Rb_tree_iteratorIS5_E
	.section	.text._ZNSt8_Rb_treeIPhSt4pairIKS0_P9func_stubESt10_Select1stIS5_ESt4lessIS0_ESaIS5_EE14_M_create_nodeIJS1_IS0_S4_EEEEPSt13_Rb_tree_nodeIS5_EDpOT_,"axG",@progbits,_ZNSt8_Rb_treeIPhSt4pairIKS0_P9func_stubESt10_Select1stIS5_ESt4lessIS0_ESaIS5_EE14_M_create_nodeIJS1_IS0_S4_EEEEPSt13_Rb_tree_nodeIS5_EDpOT_,comdat
	.align 2
	.weak	_ZNSt8_Rb_treeIPhSt4pairIKS0_P9func_stubESt10_Select1stIS5_ESt4lessIS0_ESaIS5_EE14_M_create_nodeIJS1_IS0_S4_EEEEPSt13_Rb_tree_nodeIS5_EDpOT_
	.type	_ZNSt8_Rb_treeIPhSt4pairIKS0_P9func_stubESt10_Select1stIS5_ESt4lessIS0_ESaIS5_EE14_M_create_nodeIJS1_IS0_S4_EEEEPSt13_Rb_tree_nodeIS5_EDpOT_, @function
_ZNSt8_Rb_treeIPhSt4pairIKS0_P9func_stubESt10_Select1stIS5_ESt4lessIS0_ESaIS5_EE14_M_create_nodeIJS1_IS0_S4_EEEEPSt13_Rb_tree_nodeIS5_EDpOT_:
.LFB2659:
	.loc 2 628 2
	.cfi_startproc
	endbr64
	pushq	%rbp
	.cfi_def_cfa_offset 16
	.cfi_offset 6, -16
	movq	%rsp, %rbp
	.cfi_def_cfa_register 6
	subq	$32, %rsp
	movq	%rdi, -24(%rbp)
	movq	%rsi, -32(%rbp)
	.loc 2 630 15
	movq	-24(%rbp), %rax
	movq	%rax, %rdi
	call	_ZNSt8_Rb_treeIPhSt4pairIKS0_P9func_stubESt10_Select1stIS5_ESt4lessIS0_ESaIS5_EE11_M_get_nodeEv
	movq	%rax, -8(%rbp)
	.loc 2 631 4
	movq	-32(%rbp), %rax
	movq	%rax, %rdi
	call	_ZSt7forwardISt4pairIPhP9func_stubEEOT_RNSt16remove_referenceIS5_E4typeE
	movq	%rax, %rdx
	movq	-8(%rbp), %rcx
	movq	-24(%rbp), %rax
	movq	%rcx, %rsi
	movq	%rax, %rdi
	call	_ZNSt8_Rb_treeIPhSt4pairIKS0_P9func_stubESt10_Select1stIS5_ESt4lessIS0_ESaIS5_EE17_M_construct_nodeIJS1_IS0_S4_EEEEvPSt13_Rb_tree_nodeIS5_EDpOT_
	.loc 2 632 11
	movq	-8(%rbp), %rax
	.loc 2 633 2
	leave
	.cfi_def_cfa 7, 8
	ret
	.cfi_endproc
.LFE2659:
	.size	_ZNSt8_Rb_treeIPhSt4pairIKS0_P9func_stubESt10_Select1stIS5_ESt4lessIS0_ESaIS5_EE14_M_create_nodeIJS1_IS0_S4_EEEEPSt13_Rb_tree_nodeIS5_EDpOT_, .-_ZNSt8_Rb_treeIPhSt4pairIKS0_P9func_stubESt10_Select1stIS5_ESt4lessIS0_ESaIS5_EE14_M_create_nodeIJS1_IS0_S4_EEEEPSt13_Rb_tree_nodeIS5_EDpOT_
	.section	.text._ZNSt8_Rb_treeIPhSt4pairIKS0_P9func_stubESt10_Select1stIS5_ESt4lessIS0_ESaIS5_EE24_M_get_insert_unique_posERS2_,"axG",@progbits,_ZNSt8_Rb_treeIPhSt4pairIKS0_P9func_stubESt10_Select1stIS5_ESt4lessIS0_ESaIS5_EE24_M_get_insert_unique_posERS2_,comdat
	.align 2
	.weak	_ZNSt8_Rb_treeIPhSt4pairIKS0_P9func_stubESt10_Select1stIS5_ESt4lessIS0_ESaIS5_EE24_M_get_insert_unique_posERS2_
	.type	_ZNSt8_Rb_treeIPhSt4pairIKS0_P9func_stubESt10_Select1stIS5_ESt4lessIS0_ESaIS5_EE24_M_get_insert_unique_posERS2_, @function
_ZNSt8_Rb_treeIPhSt4pairIKS0_P9func_stubESt10_Select1stIS5_ESt4lessIS0_ESaIS5_EE24_M_get_insert_unique_posERS2_:
.LFB2660:
	.loc 2 2090 5
	.cfi_startproc
	endbr64
	pushq	%rbp
	.cfi_def_cfa_offset 16
	.cfi_offset 6, -16
	movq	%rsp, %rbp
	.cfi_def_cfa_register 6
	pushq	%r12
	pushq	%rbx
	subq	$96, %rsp
	.cfi_offset 12, -24
	.cfi_offset 3, -32
	movq	%rdi, -104(%rbp)
	movq	%rsi, -112(%rbp)
	.loc 2 2090 5
	movq	%fs:40, %rax
	movq	%rax, -24(%rbp)
	xorl	%eax, %eax
	.loc 2 2094 18
	movq	-104(%rbp), %rax
	movq	%rax, %rdi
	call	_ZNSt8_Rb_treeIPhSt4pairIKS0_P9func_stubESt10_Select1stIS5_ESt4lessIS0_ESaIS5_EE8_M_beginEv
	movq	%rax, -80(%rbp)
	.loc 2 2095 17
	movq	-104(%rbp), %rax
	movq	%rax, %rdi
	call	_ZNSt8_Rb_treeIPhSt4pairIKS0_P9func_stubESt10_Select1stIS5_ESt4lessIS0_ESaIS5_EE6_M_endEv
	movq	%rax, -72(%rbp)
	.loc 2 2096 12
	movb	$1, -81(%rbp)
.L160:
	.loc 2 2097 18
	movq	-80(%rbp), %rax
	testq	%rax, %rax
	je	.L157
	.loc 2 2099 4
	movq	-80(%rbp), %rax
	movq	%rax, -72(%rbp)
	.loc 2 2100 11
	movq	-104(%rbp), %rbx
	.loc 2 2100 47
	movq	-80(%rbp), %rax
	movq	%rax, %rdi
	call	_ZNSt8_Rb_treeIPhSt4pairIKS0_P9func_stubESt10_Select1stIS5_ESt4lessIS0_ESaIS5_EE6_S_keyEPKSt13_Rb_tree_nodeIS5_E
	.loc 2 2100 11
	movq	(%rax), %rdx
	movq	-112(%rbp), %rax
	movq	(%rax), %rax
	movq	%rax, %rsi
	movq	%rbx, %rdi
	call	_ZNKSt4lessIPhEclES0_S0_
	movb	%al, -81(%rbp)
	.loc 2 2101 17
	cmpb	$0, -81(%rbp)
	je	.L158
	.loc 2 2101 26 discriminator 1
	movq	-80(%rbp), %rax
	movq	%rax, %rdi
	call	_ZNSt8_Rb_treeIPhSt4pairIKS0_P9func_stubESt10_Select1stIS5_ESt4lessIS0_ESaIS5_EE7_S_leftEPSt18_Rb_tree_node_base
	jmp	.L159
.L158:
	.loc 2 2101 42 discriminator 2
	movq	-80(%rbp), %rax
	movq	%rax, %rdi
	call	_ZNSt8_Rb_treeIPhSt4pairIKS0_P9func_stubESt10_Select1stIS5_ESt4lessIS0_ESaIS5_EE8_S_rightEPSt18_Rb_tree_node_base
.L159:
	.loc 2 2101 4 discriminator 4
	movq	%rax, -80(%rbp)
	.loc 2 2097 7 discriminator 4
	jmp	.L160
.L157:
	.loc 2 2103 16
	movq	-72(%rbp), %rdx
	leaq	-64(%rbp), %rax
	movq	%rdx, %rsi
	movq	%rax, %rdi
	call	_ZNSt17_Rb_tree_iteratorISt4pairIKPhP9func_stubEEC1EPSt18_Rb_tree_node_base
	.loc 2 2104 7
	cmpb	$0, -81(%rbp)
	je	.L161
	.loc 2 2106 12
	movq	-104(%rbp), %rax
	movq	%rax, %rdi
	call	_ZNSt8_Rb_treeIPhSt4pairIKS0_P9func_stubESt10_Select1stIS5_ESt4lessIS0_ESaIS5_EE5beginEv
	movq	%rax, -48(%rbp)
	leaq	-48(%rbp), %rdx
	leaq	-64(%rbp), %rax
	movq	%rdx, %rsi
	movq	%rax, %rdi
	call	_ZSteqRKSt17_Rb_tree_iteratorISt4pairIKPhP9func_stubEES8_
	.loc 2 2106 4
	testb	%al, %al
	je	.L162
	.loc 2 2107 26
	leaq	-72(%rbp), %rdx
	leaq	-80(%rbp), %rcx
	leaq	-48(%rbp), %rax
	movq	%rcx, %rsi
	movq	%rax, %rdi
	call	_ZNSt4pairIPSt18_Rb_tree_node_baseS1_EC1IRPSt13_Rb_tree_nodeIS_IKPhP9func_stubEERS1_Lb1EEEOT_OT0_
	movq	-48(%rbp), %rax
	movq	-40(%rbp), %rdx
	jmp	.L165
.L162:
	.loc 2 2109 6
	leaq	-64(%rbp), %rax
	movq	%rax, %rdi
	call	_ZNSt17_Rb_tree_iteratorISt4pairIKPhP9func_stubEEmmEv
.L161:
	.loc 2 2111 7
	movq	-104(%rbp), %rbx
	movq	-112(%rbp), %rax
	movq	(%rax), %r12
	.loc 2 2111 45
	movq	-64(%rbp), %rax
	.loc 2 2111 40
	movq	%rax, %rdi
	call	_ZNSt8_Rb_treeIPhSt4pairIKS0_P9func_stubESt10_Select1stIS5_ESt4lessIS0_ESaIS5_EE6_S_keyEPKSt18_Rb_tree_node_base
	.loc 2 2111 7
	movq	(%rax), %rax
	movq	%r12, %rdx
	movq	%rax, %rsi
	movq	%rbx, %rdi
	call	_ZNKSt4lessIPhEclES0_S0_
	testb	%al, %al
	je	.L164
	.loc 2 2112 22
	leaq	-72(%rbp), %rdx
	leaq	-80(%rbp), %rcx
	leaq	-48(%rbp), %rax
	movq	%rcx, %rsi
	movq	%rax, %rdi
	call	_ZNSt4pairIPSt18_Rb_tree_node_baseS1_EC1IRPSt13_Rb_tree_nodeIS_IKPhP9func_stubEERS1_Lb1EEEOT_OT0_
	movq	-48(%rbp), %rax
	movq	-40(%rbp), %rdx
	jmp	.L165
.L164:
	.loc 2 2113 33
	movq	$0, -56(%rbp)
	leaq	-56(%rbp), %rdx
	leaq	-64(%rbp), %rcx
	leaq	-48(%rbp), %rax
	movq	%rcx, %rsi
	movq	%rax, %rdi
	call	_ZNSt4pairIPSt18_Rb_tree_node_baseS1_EC1IRS1_Lb1EEEOT_RKS1_
	movq	-48(%rbp), %rax
	movq	-40(%rbp), %rdx
.L165:
	.loc 2 2114 5 discriminator 1
	movq	-24(%rbp), %rbx
	xorq	%fs:40, %rbx
	je	.L166
	.loc 2 2114 5 is_stmt 0
	call	__stack_chk_fail@PLT
.L166:
	addq	$96, %rsp
	popq	%rbx
	popq	%r12
	popq	%rbp
	.cfi_def_cfa 7, 8
	ret
	.cfi_endproc
.LFE2660:
	.size	_ZNSt8_Rb_treeIPhSt4pairIKS0_P9func_stubESt10_Select1stIS5_ESt4lessIS0_ESaIS5_EE24_M_get_insert_unique_posERS2_, .-_ZNSt8_Rb_treeIPhSt4pairIKS0_P9func_stubESt10_Select1stIS5_ESt4lessIS0_ESaIS5_EE24_M_get_insert_unique_posERS2_
	.section	.text._ZNSt8_Rb_treeIPhSt4pairIKS0_P9func_stubESt10_Select1stIS5_ESt4lessIS0_ESaIS5_EE6_S_keyEPKSt13_Rb_tree_nodeIS5_E,"axG",@progbits,_ZNSt8_Rb_treeIPhSt4pairIKS0_P9func_stubESt10_Select1stIS5_ESt4lessIS0_ESaIS5_EE6_S_keyEPKSt13_Rb_tree_nodeIS5_E,comdat
	.weak	_ZNSt8_Rb_treeIPhSt4pairIKS0_P9func_stubESt10_Select1stIS5_ESt4lessIS0_ESaIS5_EE6_S_keyEPKSt13_Rb_tree_nodeIS5_E
	.type	_ZNSt8_Rb_treeIPhSt4pairIKS0_P9func_stubESt10_Select1stIS5_ESt4lessIS0_ESaIS5_EE6_S_keyEPKSt13_Rb_tree_nodeIS5_E, @function
_ZNSt8_Rb_treeIPhSt4pairIKS0_P9func_stubESt10_Select1stIS5_ESt4lessIS0_ESaIS5_EE6_S_keyEPKSt13_Rb_tree_nodeIS5_E:
.LFB2675:
	.loc 2 772 7 is_stmt 1
	.cfi_startproc
	endbr64
	pushq	%rbp
	.cfi_def_cfa_offset 16
	.cfi_offset 6, -16
	movq	%rsp, %rbp
	.cfi_def_cfa_register 6
	subq	$32, %rsp
	movq	%rdi, -24(%rbp)
	.loc 2 772 7
	movq	%fs:40, %rax
	movq	%rax, -8(%rbp)
	xorl	%eax, %eax
	.loc 2 790 23
	movq	-24(%rbp), %rax
	movq	%rax, %rdi
	call	_ZNKSt13_Rb_tree_nodeISt4pairIKPhP9func_stubEE9_M_valptrEv
	movq	%rax, %rdx
	.loc 2 790 22
	leaq	-9(%rbp), %rax
	movq	%rdx, %rsi
	movq	%rax, %rdi
	call	_ZNKSt10_Select1stISt4pairIKPhP9func_stubEEclERKS5_
	.loc 2 791 7
	movq	-8(%rbp), %rcx
	xorq	%fs:40, %rcx
	je	.L169
	call	__stack_chk_fail@PLT
.L169:
	leave
	.cfi_def_cfa 7, 8
	ret
	.cfi_endproc
.LFE2675:
	.size	_ZNSt8_Rb_treeIPhSt4pairIKS0_P9func_stubESt10_Select1stIS5_ESt4lessIS0_ESaIS5_EE6_S_keyEPKSt13_Rb_tree_nodeIS5_E, .-_ZNSt8_Rb_treeIPhSt4pairIKS0_P9func_stubESt10_Select1stIS5_ESt4lessIS0_ESaIS5_EE6_S_keyEPKSt13_Rb_tree_nodeIS5_E
	.section	.text._ZNSt8_Rb_treeIPhSt4pairIKS0_P9func_stubESt10_Select1stIS5_ESt4lessIS0_ESaIS5_EE14_M_insert_nodeEPSt18_Rb_tree_node_baseSD_PSt13_Rb_tree_nodeIS5_E,"axG",@progbits,_ZNSt8_Rb_treeIPhSt4pairIKS0_P9func_stubESt10_Select1stIS5_ESt4lessIS0_ESaIS5_EE14_M_insert_nodeEPSt18_Rb_tree_node_baseSD_PSt13_Rb_tree_nodeIS5_E,comdat
	.align 2
	.weak	_ZNSt8_Rb_treeIPhSt4pairIKS0_P9func_stubESt10_Select1stIS5_ESt4lessIS0_ESaIS5_EE14_M_insert_nodeEPSt18_Rb_tree_node_baseSD_PSt13_Rb_tree_nodeIS5_E
	.type	_ZNSt8_Rb_treeIPhSt4pairIKS0_P9func_stubESt10_Select1stIS5_ESt4lessIS0_ESaIS5_EE14_M_insert_nodeEPSt18_Rb_tree_node_baseSD_PSt13_Rb_tree_nodeIS5_E, @function
_ZNSt8_Rb_treeIPhSt4pairIKS0_P9func_stubESt10_Select1stIS5_ESt4lessIS0_ESaIS5_EE14_M_insert_nodeEPSt18_Rb_tree_node_baseSD_PSt13_Rb_tree_nodeIS5_E:
.LFB2677:
	.loc 2 2359 5
	.cfi_startproc
	endbr64
	pushq	%rbp
	.cfi_def_cfa_offset 16
	.cfi_offset 6, -16
	movq	%rsp, %rbp
	.cfi_def_cfa_register 6
	pushq	%r12
	pushq	%rbx
	subq	$64, %rsp
	.cfi_offset 12, -24
	.cfi_offset 3, -32
	movq	%rdi, -56(%rbp)
	movq	%rsi, -64(%rbp)
	movq	%rdx, -72(%rbp)
	movq	%rcx, -80(%rbp)
	.loc 2 2359 5
	movq	%fs:40, %rax
	movq	%rax, -24(%rbp)
	xorl	%eax, %eax
	.loc 2 2363 8
	cmpq	$0, -64(%rbp)
	jne	.L171
	.loc 2 2362 45
	movq	-56(%rbp), %rax
	movq	%rax, %rdi
	call	_ZNSt8_Rb_treeIPhSt4pairIKS0_P9func_stubESt10_Select1stIS5_ESt4lessIS0_ESaIS5_EE6_M_endEv
	.loc 2 2362 38
	cmpq	%rax, -72(%rbp)
	je	.L171
	.loc 2 2363 8 discriminator 2
	movq	-56(%rbp), %rbx
	.loc 2 2364 19 discriminator 2
	movq	-72(%rbp), %rax
	movq	%rax, %rdi
	call	_ZNSt8_Rb_treeIPhSt4pairIKS0_P9func_stubESt10_Select1stIS5_ESt4lessIS0_ESaIS5_EE6_S_keyEPKSt18_Rb_tree_node_base
	.loc 2 2363 8 discriminator 2
	movq	(%rax), %r12
	.loc 2 2363 40 discriminator 2
	movq	-80(%rbp), %rax
	movq	%rax, %rdi
	call	_ZNSt8_Rb_treeIPhSt4pairIKS0_P9func_stubESt10_Select1stIS5_ESt4lessIS0_ESaIS5_EE6_S_keyEPKSt13_Rb_tree_nodeIS5_E
	.loc 2 2363 8 discriminator 2
	movq	(%rax), %rax
	movq	%r12, %rdx
	movq	%rax, %rsi
	movq	%rbx, %rdi
	call	_ZNKSt4lessIPhEclES0_S0_
	testb	%al, %al
	je	.L172
.L171:
	.loc 2 2363 8 is_stmt 0 discriminator 1
	movl	$1, %eax
	jmp	.L173
.L172:
	.loc 2 2363 8 discriminator 3
	movl	$0, %eax
.L173:
	.loc 2 2362 12 is_stmt 1
	movb	%al, -33(%rbp)
	.loc 2 2367 23
	movq	-56(%rbp), %rax
	leaq	8(%rax), %rcx
	.loc 2 2366 36
	movzbl	-33(%rbp), %eax
	movq	-72(%rbp), %rdx
	movq	-80(%rbp), %rsi
	movl	%eax, %edi
	call	_ZSt29_Rb_tree_insert_and_rebalancebPSt18_Rb_tree_node_baseS0_RS_@PLT
	.loc 2 2368 17
	movq	-56(%rbp), %rax
	movq	40(%rax), %rax
	.loc 2 2368 7
	leaq	1(%rax), %rdx
	movq	-56(%rbp), %rax
	movq	%rdx, 40(%rax)
	.loc 2 2369 26
	movq	-80(%rbp), %rdx
	leaq	-32(%rbp), %rax
	movq	%rdx, %rsi
	movq	%rax, %rdi
	call	_ZNSt17_Rb_tree_iteratorISt4pairIKPhP9func_stubEEC1EPSt18_Rb_tree_node_base
	movq	-32(%rbp), %rax
	.loc 2 2370 5
	movq	-24(%rbp), %rbx
	xorq	%fs:40, %rbx
	je	.L175
	call	__stack_chk_fail@PLT
.L175:
	addq	$64, %rsp
	popq	%rbx
	popq	%r12
	popq	%rbp
	.cfi_def_cfa 7, 8
	ret
	.cfi_endproc
.LFE2677:
	.size	_ZNSt8_Rb_treeIPhSt4pairIKS0_P9func_stubESt10_Select1stIS5_ESt4lessIS0_ESaIS5_EE14_M_insert_nodeEPSt18_Rb_tree_node_baseSD_PSt13_Rb_tree_nodeIS5_E, .-_ZNSt8_Rb_treeIPhSt4pairIKS0_P9func_stubESt10_Select1stIS5_ESt4lessIS0_ESaIS5_EE14_M_insert_nodeEPSt18_Rb_tree_node_baseSD_PSt13_Rb_tree_nodeIS5_E
	.section	.text._ZNSt4pairISt17_Rb_tree_iteratorIS_IKPhP9func_stubEEbEC2IS6_bLb1EEEOT_OT0_,"axG",@progbits,_ZNSt4pairISt17_Rb_tree_iteratorIS_IKPhP9func_stubEEbEC5IS6_bLb1EEEOT_OT0_,comdat
	.align 2
	.weak	_ZNSt4pairISt17_Rb_tree_iteratorIS_IKPhP9func_stubEEbEC2IS6_bLb1EEEOT_OT0_
	.type	_ZNSt4pairISt17_Rb_tree_iteratorIS_IKPhP9func_stubEEbEC2IS6_bLb1EEEOT_OT0_, @function
_ZNSt4pairISt17_Rb_tree_iteratorIS_IKPhP9func_stubEEbEC2IS6_bLb1EEEOT_OT0_:
.LFB2679:
	.loc 8 341 12
	.cfi_startproc
	endbr64
	pushq	%rbp
	.cfi_def_cfa_offset 16
	.cfi_offset 6, -16
	movq	%rsp, %rbp
	.cfi_def_cfa_register 6
	subq	$32, %rsp
	movq	%rdi, -8(%rbp)
	movq	%rsi, -16(%rbp)
	movq	%rdx, -24(%rbp)
.LBB20:
	.loc 8 342 27
	movq	-16(%rbp), %rax
	movq	%rax, %rdi
	call	_ZSt7forwardISt17_Rb_tree_iteratorISt4pairIKPhP9func_stubEEEOT_RNSt16remove_referenceIS8_E4typeE
	.loc 8 342 64
	movq	-8(%rbp), %rdx
	movq	(%rax), %rax
	movq	%rax, (%rdx)
	.loc 8 342 59
	movq	-24(%rbp), %rax
	movq	%rax, %rdi
	call	_ZSt7forwardIbEOT_RNSt16remove_referenceIS0_E4typeE
	.loc 8 342 64
	movzbl	(%rax), %edx
	movq	-8(%rbp), %rax
	movb	%dl, 8(%rax)
.LBE20:
	.loc 8 342 68
	nop
	leave
	.cfi_def_cfa 7, 8
	ret
	.cfi_endproc
.LFE2679:
	.size	_ZNSt4pairISt17_Rb_tree_iteratorIS_IKPhP9func_stubEEbEC2IS6_bLb1EEEOT_OT0_, .-_ZNSt4pairISt17_Rb_tree_iteratorIS_IKPhP9func_stubEEbEC2IS6_bLb1EEEOT_OT0_
	.weak	_ZNSt4pairISt17_Rb_tree_iteratorIS_IKPhP9func_stubEEbEC1IS6_bLb1EEEOT_OT0_
	.set	_ZNSt4pairISt17_Rb_tree_iteratorIS_IKPhP9func_stubEEbEC1IS6_bLb1EEEOT_OT0_,_ZNSt4pairISt17_Rb_tree_iteratorIS_IKPhP9func_stubEEbEC2IS6_bLb1EEEOT_OT0_
	.section	.text._ZNSt8_Rb_treeIPhSt4pairIKS0_P9func_stubESt10_Select1stIS5_ESt4lessIS0_ESaIS5_EE21_M_get_Node_allocatorEv,"axG",@progbits,_ZNSt8_Rb_treeIPhSt4pairIKS0_P9func_stubESt10_Select1stIS5_ESt4lessIS0_ESaIS5_EE21_M_get_Node_allocatorEv,comdat
	.align 2
	.weak	_ZNSt8_Rb_treeIPhSt4pairIKS0_P9func_stubESt10_Select1stIS5_ESt4lessIS0_ESaIS5_EE21_M_get_Node_allocatorEv
	.type	_ZNSt8_Rb_treeIPhSt4pairIKS0_P9func_stubESt10_Select1stIS5_ESt4lessIS0_ESaIS5_EE21_M_get_Node_allocatorEv, @function
_ZNSt8_Rb_treeIPhSt4pairIKS0_P9func_stubESt10_Select1stIS5_ESt4lessIS0_ESaIS5_EE21_M_get_Node_allocatorEv:
.LFB2710:
	.loc 2 566 7
	.cfi_startproc
	endbr64
	pushq	%rbp
	.cfi_def_cfa_offset 16
	.cfi_offset 6, -16
	movq	%rsp, %rbp
	.cfi_def_cfa_register 6
	movq	%rdi, -8(%rbp)
	.loc 2 567 22
	movq	-8(%rbp), %rax
	.loc 2 567 31
	popq	%rbp
	.cfi_def_cfa 7, 8
	ret
	.cfi_endproc
.LFE2710:
	.size	_ZNSt8_Rb_treeIPhSt4pairIKS0_P9func_stubESt10_Select1stIS5_ESt4lessIS0_ESaIS5_EE21_M_get_Node_allocatorEv, .-_ZNSt8_Rb_treeIPhSt4pairIKS0_P9func_stubESt10_Select1stIS5_ESt4lessIS0_ESaIS5_EE21_M_get_Node_allocatorEv
	.section	.text._ZNSt16allocator_traitsISaISt13_Rb_tree_nodeISt4pairIKPhP9func_stubEEEE7destroyIS6_EEvRS8_PT_,"axG",@progbits,_ZNSt16allocator_traitsISaISt13_Rb_tree_nodeISt4pairIKPhP9func_stubEEEE7destroyIS6_EEvRS8_PT_,comdat
	.weak	_ZNSt16allocator_traitsISaISt13_Rb_tree_nodeISt4pairIKPhP9func_stubEEEE7destroyIS6_EEvRS8_PT_
	.type	_ZNSt16allocator_traitsISaISt13_Rb_tree_nodeISt4pairIKPhP9func_stubEEEE7destroyIS6_EEvRS8_PT_, @function
_ZNSt16allocator_traitsISaISt13_Rb_tree_nodeISt4pairIKPhP9func_stubEEEE7destroyIS6_EEvRS8_PT_:
.LFB2711:
	.file 11 "/usr/include/c++/9/bits/alloc_traits.h"
	.loc 11 494 2
	.cfi_startproc
	endbr64
	pushq	%rbp
	.cfi_def_cfa_offset 16
	.cfi_offset 6, -16
	movq	%rsp, %rbp
	.cfi_def_cfa_register 6
	subq	$16, %rsp
	movq	%rdi, -8(%rbp)
	movq	%rsi, -16(%rbp)
	.loc 11 496 4
	movq	-16(%rbp), %rdx
	movq	-8(%rbp), %rax
	movq	%rdx, %rsi
	movq	%rax, %rdi
	call	_ZN9__gnu_cxx13new_allocatorISt13_Rb_tree_nodeISt4pairIKPhP9func_stubEEE7destroyIS7_EEvPT_
	.loc 11 496 22
	nop
	leave
	.cfi_def_cfa 7, 8
	ret
	.cfi_endproc
.LFE2711:
	.size	_ZNSt16allocator_traitsISaISt13_Rb_tree_nodeISt4pairIKPhP9func_stubEEEE7destroyIS6_EEvRS8_PT_, .-_ZNSt16allocator_traitsISaISt13_Rb_tree_nodeISt4pairIKPhP9func_stubEEEE7destroyIS6_EEvRS8_PT_
	.section	.text._ZNSt16allocator_traitsISaISt13_Rb_tree_nodeISt4pairIKPhP9func_stubEEEE10deallocateERS8_PS7_m,"axG",@progbits,_ZNSt16allocator_traitsISaISt13_Rb_tree_nodeISt4pairIKPhP9func_stubEEEE10deallocateERS8_PS7_m,comdat
	.weak	_ZNSt16allocator_traitsISaISt13_Rb_tree_nodeISt4pairIKPhP9func_stubEEEE10deallocateERS8_PS7_m
	.type	_ZNSt16allocator_traitsISaISt13_Rb_tree_nodeISt4pairIKPhP9func_stubEEEE10deallocateERS8_PS7_m, @function
_ZNSt16allocator_traitsISaISt13_Rb_tree_nodeISt4pairIKPhP9func_stubEEEE10deallocateERS8_PS7_m:
.LFB2712:
	.loc 11 468 7
	.cfi_startproc
	endbr64
	pushq	%rbp
	.cfi_def_cfa_offset 16
	.cfi_offset 6, -16
	movq	%rsp, %rbp
	.cfi_def_cfa_register 6
	subq	$32, %rsp
	movq	%rdi, -8(%rbp)
	movq	%rsi, -16(%rbp)
	movq	%rdx, -24(%rbp)
	.loc 11 469 9
	movq	-24(%rbp), %rdx
	movq	-16(%rbp), %rcx
	movq	-8(%rbp), %rax
	movq	%rcx, %rsi
	movq	%rax, %rdi
	call	_ZN9__gnu_cxx13new_allocatorISt13_Rb_tree_nodeISt4pairIKPhP9func_stubEEE10deallocateEPS8_m
	.loc 11 469 35
	nop
	leave
	.cfi_def_cfa 7, 8
	ret
	.cfi_endproc
.LFE2712:
	.size	_ZNSt16allocator_traitsISaISt13_Rb_tree_nodeISt4pairIKPhP9func_stubEEEE10deallocateERS8_PS7_m, .-_ZNSt16allocator_traitsISaISt13_Rb_tree_nodeISt4pairIKPhP9func_stubEEEE10deallocateERS8_PS7_m
	.section	.text._ZNSt8_Rb_treeIPhSt4pairIKS0_P9func_stubESt10_Select1stIS5_ESt4lessIS0_ESaIS5_EE6_M_endEv,"axG",@progbits,_ZNSt8_Rb_treeIPhSt4pairIKS0_P9func_stubESt10_Select1stIS5_ESt4lessIS0_ESaIS5_EE6_M_endEv,comdat
	.align 2
	.weak	_ZNSt8_Rb_treeIPhSt4pairIKS0_P9func_stubESt10_Select1stIS5_ESt4lessIS0_ESaIS5_EE6_M_endEv
	.type	_ZNSt8_Rb_treeIPhSt4pairIKS0_P9func_stubESt10_Select1stIS5_ESt4lessIS0_ESaIS5_EE6_M_endEv, @function
_ZNSt8_Rb_treeIPhSt4pairIKS0_P9func_stubESt10_Select1stIS5_ESt4lessIS0_ESaIS5_EE6_M_endEv:
.LFB2713:
	.loc 2 760 7
	.cfi_startproc
	endbr64
	pushq	%rbp
	.cfi_def_cfa_offset 16
	.cfi_offset 6, -16
	movq	%rsp, %rbp
	.cfi_def_cfa_register 6
	movq	%rdi, -8(%rbp)
	.loc 2 761 31
	movq	-8(%rbp), %rax
	addq	$8, %rax
	.loc 2 761 42
	popq	%rbp
	.cfi_def_cfa 7, 8
	ret
	.cfi_endproc
.LFE2713:
	.size	_ZNSt8_Rb_treeIPhSt4pairIKS0_P9func_stubESt10_Select1stIS5_ESt4lessIS0_ESaIS5_EE6_M_endEv, .-_ZNSt8_Rb_treeIPhSt4pairIKS0_P9func_stubESt10_Select1stIS5_ESt4lessIS0_ESaIS5_EE6_M_endEv
	.section	.text._ZNSt8_Rb_treeIPhSt4pairIKS0_P9func_stubESt10_Select1stIS5_ESt4lessIS0_ESaIS5_EE14_M_lower_boundEPSt13_Rb_tree_nodeIS5_EPSt18_Rb_tree_node_baseRS2_,"axG",@progbits,_ZNSt8_Rb_treeIPhSt4pairIKS0_P9func_stubESt10_Select1stIS5_ESt4lessIS0_ESaIS5_EE14_M_lower_boundEPSt13_Rb_tree_nodeIS5_EPSt18_Rb_tree_node_baseRS2_,comdat
	.align 2
	.weak	_ZNSt8_Rb_treeIPhSt4pairIKS0_P9func_stubESt10_Select1stIS5_ESt4lessIS0_ESaIS5_EE14_M_lower_boundEPSt13_Rb_tree_nodeIS5_EPSt18_Rb_tree_node_baseRS2_
	.type	_ZNSt8_Rb_treeIPhSt4pairIKS0_P9func_stubESt10_Select1stIS5_ESt4lessIS0_ESaIS5_EE14_M_lower_boundEPSt13_Rb_tree_nodeIS5_EPSt18_Rb_tree_node_baseRS2_, @function
_ZNSt8_Rb_treeIPhSt4pairIKS0_P9func_stubESt10_Select1stIS5_ESt4lessIS0_ESaIS5_EE14_M_lower_boundEPSt13_Rb_tree_nodeIS5_EPSt18_Rb_tree_node_baseRS2_:
.LFB2714:
	.loc 2 1929 5
	.cfi_startproc
	endbr64
	pushq	%rbp
	.cfi_def_cfa_offset 16
	.cfi_offset 6, -16
	movq	%rsp, %rbp
	.cfi_def_cfa_register 6
	pushq	%r12
	pushq	%rbx
	subq	$48, %rsp
	.cfi_offset 12, -24
	.cfi_offset 3, -32
	movq	%rdi, -40(%rbp)
	movq	%rsi, -48(%rbp)
	movq	%rdx, -56(%rbp)
	movq	%rcx, -64(%rbp)
	.loc 2 1929 5
	movq	%fs:40, %rax
	movq	%rax, -24(%rbp)
	xorl	%eax, %eax
.L187:
	.loc 2 1933 18
	cmpq	$0, -48(%rbp)
	je	.L184
	.loc 2 1934 6
	movq	-40(%rbp), %rbx
	movq	-64(%rbp), %rax
	movq	(%rax), %r12
	.loc 2 1934 36
	movq	-48(%rbp), %rax
	movq	%rax, %rdi
	call	_ZNSt8_Rb_treeIPhSt4pairIKS0_P9func_stubESt10_Select1stIS5_ESt4lessIS0_ESaIS5_EE6_S_keyEPKSt13_Rb_tree_nodeIS5_E
	.loc 2 1934 6
	movq	(%rax), %rax
	movq	%r12, %rdx
	movq	%rax, %rsi
	movq	%rbx, %rdi
	call	_ZNKSt4lessIPhEclES0_S0_
	xorl	$1, %eax
	.loc 2 1934 2
	testb	%al, %al
	je	.L185
	.loc 2 1935 4
	movq	-48(%rbp), %rax
	movq	%rax, -56(%rbp)
	.loc 2 1935 28
	movq	-48(%rbp), %rax
	movq	%rax, %rdi
	call	_ZNSt8_Rb_treeIPhSt4pairIKS0_P9func_stubESt10_Select1stIS5_ESt4lessIS0_ESaIS5_EE7_S_leftEPSt18_Rb_tree_node_base
	movq	%rax, -48(%rbp)
	jmp	.L187
.L185:
	.loc 2 1937 18
	movq	-48(%rbp), %rax
	movq	%rax, %rdi
	call	_ZNSt8_Rb_treeIPhSt4pairIKS0_P9func_stubESt10_Select1stIS5_ESt4lessIS0_ESaIS5_EE8_S_rightEPSt18_Rb_tree_node_base
	movq	%rax, -48(%rbp)
	.loc 2 1933 7
	jmp	.L187
.L184:
	.loc 2 1938 26
	movq	-56(%rbp), %rdx
	leaq	-32(%rbp), %rax
	movq	%rdx, %rsi
	movq	%rax, %rdi
	call	_ZNSt17_Rb_tree_iteratorISt4pairIKPhP9func_stubEEC1EPSt18_Rb_tree_node_base
	movq	-32(%rbp), %rax
	.loc 2 1939 5
	movq	-24(%rbp), %rcx
	xorq	%fs:40, %rcx
	je	.L189
	call	__stack_chk_fail@PLT
.L189:
	addq	$48, %rsp
	popq	%rbx
	popq	%r12
	popq	%rbp
	.cfi_def_cfa 7, 8
	ret
	.cfi_endproc
.LFE2714:
	.size	_ZNSt8_Rb_treeIPhSt4pairIKS0_P9func_stubESt10_Select1stIS5_ESt4lessIS0_ESaIS5_EE14_M_lower_boundEPSt13_Rb_tree_nodeIS5_EPSt18_Rb_tree_node_baseRS2_, .-_ZNSt8_Rb_treeIPhSt4pairIKS0_P9func_stubESt10_Select1stIS5_ESt4lessIS0_ESaIS5_EE14_M_lower_boundEPSt13_Rb_tree_nodeIS5_EPSt18_Rb_tree_node_baseRS2_
	.section	.text._ZNSt8_Rb_treeIPhSt4pairIKS0_P9func_stubESt10_Select1stIS5_ESt4lessIS0_ESaIS5_EE6_S_keyEPKSt18_Rb_tree_node_base,"axG",@progbits,_ZNSt8_Rb_treeIPhSt4pairIKS0_P9func_stubESt10_Select1stIS5_ESt4lessIS0_ESaIS5_EE6_S_keyEPKSt18_Rb_tree_node_base,comdat
	.weak	_ZNSt8_Rb_treeIPhSt4pairIKS0_P9func_stubESt10_Select1stIS5_ESt4lessIS0_ESaIS5_EE6_S_keyEPKSt18_Rb_tree_node_base
	.type	_ZNSt8_Rb_treeIPhSt4pairIKS0_P9func_stubESt10_Select1stIS5_ESt4lessIS0_ESaIS5_EE6_S_keyEPKSt18_Rb_tree_node_base, @function
_ZNSt8_Rb_treeIPhSt4pairIKS0_P9func_stubESt10_Select1stIS5_ESt4lessIS0_ESaIS5_EE6_S_keyEPKSt18_Rb_tree_node_base:
.LFB2715:
	.loc 2 814 7
	.cfi_startproc
	endbr64
	pushq	%rbp
	.cfi_def_cfa_offset 16
	.cfi_offset 6, -16
	movq	%rsp, %rbp
	.cfi_def_cfa_register 6
	subq	$16, %rsp
	movq	%rdi, -8(%rbp)
	.loc 2 815 22
	movq	-8(%rbp), %rax
	movq	%rax, %rdi
	call	_ZNSt8_Rb_treeIPhSt4pairIKS0_P9func_stubESt10_Select1stIS5_ESt4lessIS0_ESaIS5_EE6_S_keyEPKSt13_Rb_tree_nodeIS5_E
	.loc 2 815 60
	leave
	.cfi_def_cfa 7, 8
	ret
	.cfi_endproc
.LFE2715:
	.size	_ZNSt8_Rb_treeIPhSt4pairIKS0_P9func_stubESt10_Select1stIS5_ESt4lessIS0_ESaIS5_EE6_S_keyEPKSt18_Rb_tree_node_base, .-_ZNSt8_Rb_treeIPhSt4pairIKS0_P9func_stubESt10_Select1stIS5_ESt4lessIS0_ESaIS5_EE6_S_keyEPKSt18_Rb_tree_node_base
	.section	.text._ZNKSt4lessIPhEclES0_S0_,"axG",@progbits,_ZNKSt4lessIPhEclES0_S0_,comdat
	.align 2
	.weak	_ZNKSt4lessIPhEclES0_S0_
	.type	_ZNKSt4lessIPhEclES0_S0_, @function
_ZNKSt4lessIPhEclES0_S0_:
.LFB2716:
	.file 12 "/usr/include/c++/9/bits/stl_function.h"
	.loc 12 433 7
	.cfi_startproc
	endbr64
	pushq	%rbp
	.cfi_def_cfa_offset 16
	.cfi_offset 6, -16
	movq	%rsp, %rbp
	.cfi_def_cfa_register 6
	movq	%rdi, -8(%rbp)
	movq	%rsi, -16(%rbp)
	movq	%rdx, -24(%rbp)
	.loc 12 443 31
	movq	-16(%rbp), %rdx
	movq	-24(%rbp), %rax
	.loc 12 443 51
	cmpq	%rax, %rdx
	setb	%al
	.loc 12 444 7
	popq	%rbp
	.cfi_def_cfa 7, 8
	ret
	.cfi_endproc
.LFE2716:
	.size	_ZNKSt4lessIPhEclES0_S0_, .-_ZNKSt4lessIPhEclES0_S0_
	.section	.text._ZNSt17_Rb_tree_iteratorISt4pairIKPhP9func_stubEEppEv,"axG",@progbits,_ZNSt17_Rb_tree_iteratorISt4pairIKPhP9func_stubEEppEv,comdat
	.align 2
	.weak	_ZNSt17_Rb_tree_iteratorISt4pairIKPhP9func_stubEEppEv
	.type	_ZNSt17_Rb_tree_iteratorISt4pairIKPhP9func_stubEEppEv, @function
_ZNSt17_Rb_tree_iteratorISt4pairIKPhP9func_stubEEppEv:
.LFB2717:
	.loc 2 285 7
	.cfi_startproc
	endbr64
	pushq	%rbp
	.cfi_def_cfa_offset 16
	.cfi_offset 6, -16
	movq	%rsp, %rbp
	.cfi_def_cfa_register 6
	subq	$16, %rsp
	movq	%rdi, -8(%rbp)
	.loc 2 287 30
	movq	-8(%rbp), %rax
	movq	(%rax), %rax
	movq	%rax, %rdi
	call	_ZSt18_Rb_tree_incrementPSt18_Rb_tree_node_base@PLT
	.loc 2 287 2
	movq	-8(%rbp), %rdx
	movq	%rax, (%rdx)
	.loc 2 288 10
	movq	-8(%rbp), %rax
	.loc 2 289 7
	leave
	.cfi_def_cfa 7, 8
	ret
	.cfi_endproc
.LFE2717:
	.size	_ZNSt17_Rb_tree_iteratorISt4pairIKPhP9func_stubEEppEv, .-_ZNSt17_Rb_tree_iteratorISt4pairIKPhP9func_stubEEppEv
	.section	.text._ZNSt23_Rb_tree_const_iteratorISt4pairIKPhP9func_stubEEC2ERKSt17_Rb_tree_iteratorIS5_E,"axG",@progbits,_ZNSt23_Rb_tree_const_iteratorISt4pairIKPhP9func_stubEEC5ERKSt17_Rb_tree_iteratorIS5_E,comdat
	.align 2
	.weak	_ZNSt23_Rb_tree_const_iteratorISt4pairIKPhP9func_stubEEC2ERKSt17_Rb_tree_iteratorIS5_E
	.type	_ZNSt23_Rb_tree_const_iteratorISt4pairIKPhP9func_stubEEC2ERKSt17_Rb_tree_iteratorIS5_E, @function
_ZNSt23_Rb_tree_const_iteratorISt4pairIKPhP9func_stubEEC2ERKSt17_Rb_tree_iteratorIS5_E:
.LFB2719:
	.loc 2 348 7
	.cfi_startproc
	endbr64
	pushq	%rbp
	.cfi_def_cfa_offset 16
	.cfi_offset 6, -16
	movq	%rsp, %rbp
	.cfi_def_cfa_register 6
	movq	%rdi, -8(%rbp)
	movq	%rsi, -16(%rbp)
.LBB21:
	.loc 2 349 22
	movq	-16(%rbp), %rax
	movq	(%rax), %rdx
	.loc 2 349 29
	movq	-8(%rbp), %rax
	movq	%rdx, (%rax)
.LBE21:
	.loc 2 349 33
	nop
	popq	%rbp
	.cfi_def_cfa 7, 8
	ret
	.cfi_endproc
.LFE2719:
	.size	_ZNSt23_Rb_tree_const_iteratorISt4pairIKPhP9func_stubEEC2ERKSt17_Rb_tree_iteratorIS5_E, .-_ZNSt23_Rb_tree_const_iteratorISt4pairIKPhP9func_stubEEC2ERKSt17_Rb_tree_iteratorIS5_E
	.weak	_ZNSt23_Rb_tree_const_iteratorISt4pairIKPhP9func_stubEEC1ERKSt17_Rb_tree_iteratorIS5_E
	.set	_ZNSt23_Rb_tree_const_iteratorISt4pairIKPhP9func_stubEEC1ERKSt17_Rb_tree_iteratorIS5_E,_ZNSt23_Rb_tree_const_iteratorISt4pairIKPhP9func_stubEEC2ERKSt17_Rb_tree_iteratorIS5_E
	.section	.text._ZNSt8_Rb_treeIPhSt4pairIKS0_P9func_stubESt10_Select1stIS5_ESt4lessIS0_ESaIS5_EE12_M_erase_auxESt23_Rb_tree_const_iteratorIS5_E,"axG",@progbits,_ZNSt8_Rb_treeIPhSt4pairIKS0_P9func_stubESt10_Select1stIS5_ESt4lessIS0_ESaIS5_EE12_M_erase_auxESt23_Rb_tree_const_iteratorIS5_E,comdat
	.align 2
	.weak	_ZNSt8_Rb_treeIPhSt4pairIKS0_P9func_stubESt10_Select1stIS5_ESt4lessIS0_ESaIS5_EE12_M_erase_auxESt23_Rb_tree_const_iteratorIS5_E
	.type	_ZNSt8_Rb_treeIPhSt4pairIKS0_P9func_stubESt10_Select1stIS5_ESt4lessIS0_ESaIS5_EE12_M_erase_auxESt23_Rb_tree_const_iteratorIS5_E, @function
_ZNSt8_Rb_treeIPhSt4pairIKS0_P9func_stubESt10_Select1stIS5_ESt4lessIS0_ESaIS5_EE12_M_erase_auxESt23_Rb_tree_const_iteratorIS5_E:
.LFB2721:
	.loc 2 2509 5
	.cfi_startproc
	endbr64
	pushq	%rbp
	.cfi_def_cfa_offset 16
	.cfi_offset 6, -16
	movq	%rsp, %rbp
	.cfi_def_cfa_register 6
	subq	$32, %rsp
	movq	%rdi, -24(%rbp)
	movq	%rsi, -32(%rbp)
	.loc 2 2515 20
	movq	-24(%rbp), %rax
	leaq	8(%rax), %rdx
	.loc 2 2514 39
	movq	-32(%rbp), %rax
	.loc 2 2514 5
	movq	%rdx, %rsi
	movq	%rax, %rdi
	call	_ZSt28_Rb_tree_rebalance_for_erasePSt18_Rb_tree_node_baseRS_@PLT
	movq	%rax, -8(%rbp)
	.loc 2 2516 7
	movq	-8(%rbp), %rdx
	movq	-24(%rbp), %rax
	movq	%rdx, %rsi
	movq	%rax, %rdi
	call	_ZNSt8_Rb_treeIPhSt4pairIKS0_P9func_stubESt10_Select1stIS5_ESt4lessIS0_ESaIS5_EE12_M_drop_nodeEPSt13_Rb_tree_nodeIS5_E
	.loc 2 2517 17
	movq	-24(%rbp), %rax
	movq	40(%rax), %rax
	.loc 2 2517 7
	leaq	-1(%rax), %rdx
	movq	-24(%rbp), %rax
	movq	%rdx, 40(%rax)
	.loc 2 2518 5
	nop
	leave
	.cfi_def_cfa 7, 8
	ret
	.cfi_endproc
.LFE2721:
	.size	_ZNSt8_Rb_treeIPhSt4pairIKS0_P9func_stubESt10_Select1stIS5_ESt4lessIS0_ESaIS5_EE12_M_erase_auxESt23_Rb_tree_const_iteratorIS5_E, .-_ZNSt8_Rb_treeIPhSt4pairIKS0_P9func_stubESt10_Select1stIS5_ESt4lessIS0_ESaIS5_EE12_M_erase_auxESt23_Rb_tree_const_iteratorIS5_E
	.section	.text._ZNSt8_Rb_treeIPhSt4pairIKS0_P9func_stubESt10_Select1stIS5_ESt4lessIS0_ESaIS5_EE11_M_get_nodeEv,"axG",@progbits,_ZNSt8_Rb_treeIPhSt4pairIKS0_P9func_stubESt10_Select1stIS5_ESt4lessIS0_ESaIS5_EE11_M_get_nodeEv,comdat
	.align 2
	.weak	_ZNSt8_Rb_treeIPhSt4pairIKS0_P9func_stubESt10_Select1stIS5_ESt4lessIS0_ESaIS5_EE11_M_get_nodeEv
	.type	_ZNSt8_Rb_treeIPhSt4pairIKS0_P9func_stubESt10_Select1stIS5_ESt4lessIS0_ESaIS5_EE11_M_get_nodeEv, @function
_ZNSt8_Rb_treeIPhSt4pairIKS0_P9func_stubESt10_Select1stIS5_ESt4lessIS0_ESaIS5_EE11_M_get_nodeEv:
.LFB2722:
	.loc 2 579 7
	.cfi_startproc
	endbr64
	pushq	%rbp
	.cfi_def_cfa_offset 16
	.cfi_offset 6, -16
	movq	%rsp, %rbp
	.cfi_def_cfa_register 6
	subq	$16, %rsp
	movq	%rdi, -8(%rbp)
	.loc 2 580 39
	movq	-8(%rbp), %rax
	movq	%rax, %rdi
	call	_ZNSt8_Rb_treeIPhSt4pairIKS0_P9func_stubESt10_Select1stIS5_ESt4lessIS0_ESaIS5_EE21_M_get_Node_allocatorEv
	movl	$1, %esi
	movq	%rax, %rdi
	call	_ZNSt16allocator_traitsISaISt13_Rb_tree_nodeISt4pairIKPhP9func_stubEEEE8allocateERS8_m
	.loc 2 580 69
	leave
	.cfi_def_cfa 7, 8
	ret
	.cfi_endproc
.LFE2722:
	.size	_ZNSt8_Rb_treeIPhSt4pairIKS0_P9func_stubESt10_Select1stIS5_ESt4lessIS0_ESaIS5_EE11_M_get_nodeEv, .-_ZNSt8_Rb_treeIPhSt4pairIKS0_P9func_stubESt10_Select1stIS5_ESt4lessIS0_ESaIS5_EE11_M_get_nodeEv
	.section	.text._ZNSt8_Rb_treeIPhSt4pairIKS0_P9func_stubESt10_Select1stIS5_ESt4lessIS0_ESaIS5_EE17_M_construct_nodeIJS1_IS0_S4_EEEEvPSt13_Rb_tree_nodeIS5_EDpOT_,"axG",@progbits,_ZNSt8_Rb_treeIPhSt4pairIKS0_P9func_stubESt10_Select1stIS5_ESt4lessIS0_ESaIS5_EE17_M_construct_nodeIJS1_IS0_S4_EEEEvPSt13_Rb_tree_nodeIS5_EDpOT_,comdat
	.align 2
	.weak	_ZNSt8_Rb_treeIPhSt4pairIKS0_P9func_stubESt10_Select1stIS5_ESt4lessIS0_ESaIS5_EE17_M_construct_nodeIJS1_IS0_S4_EEEEvPSt13_Rb_tree_nodeIS5_EDpOT_
	.type	_ZNSt8_Rb_treeIPhSt4pairIKS0_P9func_stubESt10_Select1stIS5_ESt4lessIS0_ESaIS5_EE17_M_construct_nodeIJS1_IS0_S4_EEEEvPSt13_Rb_tree_nodeIS5_EDpOT_, @function
_ZNSt8_Rb_treeIPhSt4pairIKS0_P9func_stubESt10_Select1stIS5_ESt4lessIS0_ESaIS5_EE17_M_construct_nodeIJS1_IS0_S4_EEEEvPSt13_Rb_tree_nodeIS5_EDpOT_:
.LFB2723:
	.loc 2 609 2
	.cfi_startproc
	.cfi_personality 0x9b,DW.ref.__gxx_personality_v0
	.cfi_lsda 0x1b,.LLSDA2723
	endbr64
	pushq	%rbp
	.cfi_def_cfa_offset 16
	.cfi_offset 6, -16
	movq	%rsp, %rbp
	.cfi_def_cfa_register 6
	pushq	%r12
	pushq	%rbx
	subq	$32, %rsp
	.cfi_offset 12, -24
	.cfi_offset 3, -32
	movq	%rdi, -24(%rbp)
	movq	%rsi, -32(%rbp)
	movq	%rdx, -40(%rbp)
	.loc 2 613 8
	movq	-32(%rbp), %rax
	movq	%rax, %rsi
	movl	$48, %edi
	call	_ZnwmPv
	.loc 2 614 32
	movq	-40(%rbp), %rax
	movq	%rax, %rdi
	call	_ZSt7forwardISt4pairIPhP9func_stubEEOT_RNSt16remove_referenceIS5_E4typeE
	movq	%rax, %r12
	movq	-32(%rbp), %rax
	movq	%rax, %rdi
	call	_ZNSt13_Rb_tree_nodeISt4pairIKPhP9func_stubEE9_M_valptrEv
	movq	%rax, %rbx
	movq	-24(%rbp), %rax
	movq	%rax, %rdi
	call	_ZNSt8_Rb_treeIPhSt4pairIKS0_P9func_stubESt10_Select1stIS5_ESt4lessIS0_ESaIS5_EE21_M_get_Node_allocatorEv
	movq	%r12, %rdx
	movq	%rbx, %rsi
	movq	%rax, %rdi
.LEHB6:
	call	_ZNSt16allocator_traitsISaISt13_Rb_tree_nodeISt4pairIKPhP9func_stubEEEE9constructIS6_JS1_IS2_S5_EEEEvRS8_PT_DpOT0_
.LEHE6:
	.loc 2 624 2
	jmp	.L205
.L203:
	endbr64
	.loc 2 618 4
	movq	%rax, %rdi
	call	__cxa_begin_catch@PLT
	.loc 2 621 8
	movq	-32(%rbp), %rdx
	movq	-24(%rbp), %rax
	movq	%rdx, %rsi
	movq	%rax, %rdi
	call	_ZNSt8_Rb_treeIPhSt4pairIKS0_P9func_stubESt10_Select1stIS5_ESt4lessIS0_ESaIS5_EE11_M_put_nodeEPSt13_Rb_tree_nodeIS5_E
.LEHB7:
	.loc 2 622 8
	call	__cxa_rethrow@PLT
.LEHE7:
.L204:
	endbr64
	movq	%rax, %rbx
	.loc 2 618 4
	call	__cxa_end_catch@PLT
	movq	%rbx, %rax
	movq	%rax, %rdi
.LEHB8:
	call	_Unwind_Resume@PLT
.LEHE8:
.L205:
	.loc 2 624 2
	addq	$32, %rsp
	popq	%rbx
	popq	%r12
	popq	%rbp
	.cfi_def_cfa 7, 8
	ret
	.cfi_endproc
.LFE2723:
	.section	.gcc_except_table
	.align 4
.LLSDA2723:
	.byte	0xff
	.byte	0x9b
	.uleb128 .LLSDATT2723-.LLSDATTD2723
.LLSDATTD2723:
	.byte	0x1
	.uleb128 .LLSDACSE2723-.LLSDACSB2723
.LLSDACSB2723:
	.uleb128 .LEHB6-.LFB2723
	.uleb128 .LEHE6-.LEHB6
	.uleb128 .L203-.LFB2723
	.uleb128 0x1
	.uleb128 .LEHB7-.LFB2723
	.uleb128 .LEHE7-.LEHB7
	.uleb128 .L204-.LFB2723
	.uleb128 0
	.uleb128 .LEHB8-.LFB2723
	.uleb128 .LEHE8-.LEHB8
	.uleb128 0
	.uleb128 0
.LLSDACSE2723:
	.byte	0x1
	.byte	0
	.align 4
	.long	0

.LLSDATT2723:
	.section	.text._ZNSt8_Rb_treeIPhSt4pairIKS0_P9func_stubESt10_Select1stIS5_ESt4lessIS0_ESaIS5_EE17_M_construct_nodeIJS1_IS0_S4_EEEEvPSt13_Rb_tree_nodeIS5_EDpOT_,"axG",@progbits,_ZNSt8_Rb_treeIPhSt4pairIKS0_P9func_stubESt10_Select1stIS5_ESt4lessIS0_ESaIS5_EE17_M_construct_nodeIJS1_IS0_S4_EEEEvPSt13_Rb_tree_nodeIS5_EDpOT_,comdat
	.size	_ZNSt8_Rb_treeIPhSt4pairIKS0_P9func_stubESt10_Select1stIS5_ESt4lessIS0_ESaIS5_EE17_M_construct_nodeIJS1_IS0_S4_EEEEvPSt13_Rb_tree_nodeIS5_EDpOT_, .-_ZNSt8_Rb_treeIPhSt4pairIKS0_P9func_stubESt10_Select1stIS5_ESt4lessIS0_ESaIS5_EE17_M_construct_nodeIJS1_IS0_S4_EEEEvPSt13_Rb_tree_nodeIS5_EDpOT_
	.section	.text._ZNSt4pairIPSt18_Rb_tree_node_baseS1_EC2IRPSt13_Rb_tree_nodeIS_IKPhP9func_stubEERS1_Lb1EEEOT_OT0_,"axG",@progbits,_ZNSt4pairIPSt18_Rb_tree_node_baseS1_EC5IRPSt13_Rb_tree_nodeIS_IKPhP9func_stubEERS1_Lb1EEEOT_OT0_,comdat
	.align 2
	.weak	_ZNSt4pairIPSt18_Rb_tree_node_baseS1_EC2IRPSt13_Rb_tree_nodeIS_IKPhP9func_stubEERS1_Lb1EEEOT_OT0_
	.type	_ZNSt4pairIPSt18_Rb_tree_node_baseS1_EC2IRPSt13_Rb_tree_nodeIS_IKPhP9func_stubEERS1_Lb1EEEOT_OT0_, @function
_ZNSt4pairIPSt18_Rb_tree_node_baseS1_EC2IRPSt13_Rb_tree_nodeIS_IKPhP9func_stubEERS1_Lb1EEEOT_OT0_:
.LFB2725:
	.loc 8 341 12
	.cfi_startproc
	endbr64
	pushq	%rbp
	.cfi_def_cfa_offset 16
	.cfi_offset 6, -16
	movq	%rsp, %rbp
	.cfi_def_cfa_register 6
	subq	$32, %rsp
	movq	%rdi, -8(%rbp)
	movq	%rsi, -16(%rbp)
	movq	%rdx, -24(%rbp)
.LBB22:
	.loc 8 342 27
	movq	-16(%rbp), %rax
	movq	%rax, %rdi
	call	_ZSt7forwardIRPSt13_Rb_tree_nodeISt4pairIKPhP9func_stubEEEOT_RNSt16remove_referenceISA_E4typeE
	.loc 8 342 64
	movq	(%rax), %rdx
	movq	-8(%rbp), %rax
	movq	%rdx, (%rax)
	.loc 8 342 59
	movq	-24(%rbp), %rax
	movq	%rax, %rdi
	call	_ZSt7forwardIRPSt18_Rb_tree_node_baseEOT_RNSt16remove_referenceIS3_E4typeE
	.loc 8 342 64
	movq	(%rax), %rdx
	movq	-8(%rbp), %rax
	movq	%rdx, 8(%rax)
.LBE22:
	.loc 8 342 68
	nop
	leave
	.cfi_def_cfa 7, 8
	ret
	.cfi_endproc
.LFE2725:
	.size	_ZNSt4pairIPSt18_Rb_tree_node_baseS1_EC2IRPSt13_Rb_tree_nodeIS_IKPhP9func_stubEERS1_Lb1EEEOT_OT0_, .-_ZNSt4pairIPSt18_Rb_tree_node_baseS1_EC2IRPSt13_Rb_tree_nodeIS_IKPhP9func_stubEERS1_Lb1EEEOT_OT0_
	.weak	_ZNSt4pairIPSt18_Rb_tree_node_baseS1_EC1IRPSt13_Rb_tree_nodeIS_IKPhP9func_stubEERS1_Lb1EEEOT_OT0_
	.set	_ZNSt4pairIPSt18_Rb_tree_node_baseS1_EC1IRPSt13_Rb_tree_nodeIS_IKPhP9func_stubEERS1_Lb1EEEOT_OT0_,_ZNSt4pairIPSt18_Rb_tree_node_baseS1_EC2IRPSt13_Rb_tree_nodeIS_IKPhP9func_stubEERS1_Lb1EEEOT_OT0_
	.section	.text._ZNSt17_Rb_tree_iteratorISt4pairIKPhP9func_stubEEmmEv,"axG",@progbits,_ZNSt17_Rb_tree_iteratorISt4pairIKPhP9func_stubEEmmEv,comdat
	.align 2
	.weak	_ZNSt17_Rb_tree_iteratorISt4pairIKPhP9func_stubEEmmEv
	.type	_ZNSt17_Rb_tree_iteratorISt4pairIKPhP9func_stubEEmmEv, @function
_ZNSt17_Rb_tree_iteratorISt4pairIKPhP9func_stubEEmmEv:
.LFB2727:
	.loc 2 300 7
	.cfi_startproc
	endbr64
	pushq	%rbp
	.cfi_def_cfa_offset 16
	.cfi_offset 6, -16
	movq	%rsp, %rbp
	.cfi_def_cfa_register 6
	subq	$16, %rsp
	movq	%rdi, -8(%rbp)
	.loc 2 302 30
	movq	-8(%rbp), %rax
	movq	(%rax), %rax
	movq	%rax, %rdi
	call	_ZSt18_Rb_tree_decrementPSt18_Rb_tree_node_base@PLT
	.loc 2 302 2
	movq	-8(%rbp), %rdx
	movq	%rax, (%rdx)
	.loc 2 303 10
	movq	-8(%rbp), %rax
	.loc 2 304 7
	leave
	.cfi_def_cfa 7, 8
	ret
	.cfi_endproc
.LFE2727:
	.size	_ZNSt17_Rb_tree_iteratorISt4pairIKPhP9func_stubEEmmEv, .-_ZNSt17_Rb_tree_iteratorISt4pairIKPhP9func_stubEEmmEv
	.section	.text._ZNSt4pairIPSt18_Rb_tree_node_baseS1_EC2IRS1_Lb1EEEOT_RKS1_,"axG",@progbits,_ZNSt4pairIPSt18_Rb_tree_node_baseS1_EC5IRS1_Lb1EEEOT_RKS1_,comdat
	.align 2
	.weak	_ZNSt4pairIPSt18_Rb_tree_node_baseS1_EC2IRS1_Lb1EEEOT_RKS1_
	.type	_ZNSt4pairIPSt18_Rb_tree_node_baseS1_EC2IRS1_Lb1EEEOT_RKS1_, @function
_ZNSt4pairIPSt18_Rb_tree_node_baseS1_EC2IRS1_Lb1EEEOT_RKS1_:
.LFB2729:
	.loc 8 311 18
	.cfi_startproc
	endbr64
	pushq	%rbp
	.cfi_def_cfa_offset 16
	.cfi_offset 6, -16
	movq	%rsp, %rbp
	.cfi_def_cfa_register 6
	subq	$32, %rsp
	movq	%rdi, -8(%rbp)
	movq	%rsi, -16(%rbp)
	movq	%rdx, -24(%rbp)
.LBB23:
	.loc 8 312 33
	movq	-16(%rbp), %rax
	movq	%rax, %rdi
	call	_ZSt7forwardIRPSt18_Rb_tree_node_baseEOT_RNSt16remove_referenceIS3_E4typeE
	.loc 8 312 51
	movq	(%rax), %rdx
	movq	-8(%rbp), %rax
	movq	%rdx, (%rax)
	movq	-24(%rbp), %rax
	movq	(%rax), %rdx
	movq	-8(%rbp), %rax
	movq	%rdx, 8(%rax)
.LBE23:
	.loc 8 312 55
	nop
	leave
	.cfi_def_cfa 7, 8
	ret
	.cfi_endproc
.LFE2729:
	.size	_ZNSt4pairIPSt18_Rb_tree_node_baseS1_EC2IRS1_Lb1EEEOT_RKS1_, .-_ZNSt4pairIPSt18_Rb_tree_node_baseS1_EC2IRS1_Lb1EEEOT_RKS1_
	.weak	_ZNSt4pairIPSt18_Rb_tree_node_baseS1_EC1IRS1_Lb1EEEOT_RKS1_
	.set	_ZNSt4pairIPSt18_Rb_tree_node_baseS1_EC1IRS1_Lb1EEEOT_RKS1_,_ZNSt4pairIPSt18_Rb_tree_node_baseS1_EC2IRS1_Lb1EEEOT_RKS1_
	.section	.text._ZNKSt13_Rb_tree_nodeISt4pairIKPhP9func_stubEE9_M_valptrEv,"axG",@progbits,_ZNKSt13_Rb_tree_nodeISt4pairIKPhP9func_stubEE9_M_valptrEv,comdat
	.align 2
	.weak	_ZNKSt13_Rb_tree_nodeISt4pairIKPhP9func_stubEE9_M_valptrEv
	.type	_ZNKSt13_Rb_tree_nodeISt4pairIKPhP9func_stubEE9_M_valptrEv, @function
_ZNKSt13_Rb_tree_nodeISt4pairIKPhP9func_stubEE9_M_valptrEv:
.LFB2731:
	.loc 2 238 7
	.cfi_startproc
	endbr64
	pushq	%rbp
	.cfi_def_cfa_offset 16
	.cfi_offset 6, -16
	movq	%rsp, %rbp
	.cfi_def_cfa_register 6
	subq	$16, %rsp
	movq	%rdi, -8(%rbp)
	.loc 2 239 34
	movq	-8(%rbp), %rax
	addq	$32, %rax
	movq	%rax, %rdi
	call	_ZNK9__gnu_cxx16__aligned_membufISt4pairIKPhP9func_stubEE6_M_ptrEv
	.loc 2 239 37
	leave
	.cfi_def_cfa 7, 8
	ret
	.cfi_endproc
.LFE2731:
	.size	_ZNKSt13_Rb_tree_nodeISt4pairIKPhP9func_stubEE9_M_valptrEv, .-_ZNKSt13_Rb_tree_nodeISt4pairIKPhP9func_stubEE9_M_valptrEv
	.section	.text._ZNKSt10_Select1stISt4pairIKPhP9func_stubEEclERKS5_,"axG",@progbits,_ZNKSt10_Select1stISt4pairIKPhP9func_stubEEclERKS5_,comdat
	.align 2
	.weak	_ZNKSt10_Select1stISt4pairIKPhP9func_stubEEclERKS5_
	.type	_ZNKSt10_Select1stISt4pairIKPhP9func_stubEEclERKS5_, @function
_ZNKSt10_Select1stISt4pairIKPhP9func_stubEEclERKS5_:
.LFB2732:
	.loc 12 1155 7
	.cfi_startproc
	endbr64
	pushq	%rbp
	.cfi_def_cfa_offset 16
	.cfi_offset 6, -16
	movq	%rsp, %rbp
	.cfi_def_cfa_register 6
	movq	%rdi, -8(%rbp)
	movq	%rsi, -16(%rbp)
	.loc 12 1156 20
	movq	-16(%rbp), %rax
	.loc 12 1156 27
	popq	%rbp
	.cfi_def_cfa 7, 8
	ret
	.cfi_endproc
.LFE2732:
	.size	_ZNKSt10_Select1stISt4pairIKPhP9func_stubEEclERKS5_, .-_ZNKSt10_Select1stISt4pairIKPhP9func_stubEEclERKS5_
	.section	.text._ZSt7forwardISt17_Rb_tree_iteratorISt4pairIKPhP9func_stubEEEOT_RNSt16remove_referenceIS8_E4typeE,"axG",@progbits,_ZSt7forwardISt17_Rb_tree_iteratorISt4pairIKPhP9func_stubEEEOT_RNSt16remove_referenceIS8_E4typeE,comdat
	.weak	_ZSt7forwardISt17_Rb_tree_iteratorISt4pairIKPhP9func_stubEEEOT_RNSt16remove_referenceIS8_E4typeE
	.type	_ZSt7forwardISt17_Rb_tree_iteratorISt4pairIKPhP9func_stubEEEOT_RNSt16remove_referenceIS8_E4typeE, @function
_ZSt7forwardISt17_Rb_tree_iteratorISt4pairIKPhP9func_stubEEEOT_RNSt16remove_referenceIS8_E4typeE:
.LFB2733:
	.loc 10 74 5
	.cfi_startproc
	endbr64
	pushq	%rbp
	.cfi_def_cfa_offset 16
	.cfi_offset 6, -16
	movq	%rsp, %rbp
	.cfi_def_cfa_register 6
	movq	%rdi, -8(%rbp)
	.loc 10 75 36
	movq	-8(%rbp), %rax
	.loc 10 75 39
	popq	%rbp
	.cfi_def_cfa 7, 8
	ret
	.cfi_endproc
.LFE2733:
	.size	_ZSt7forwardISt17_Rb_tree_iteratorISt4pairIKPhP9func_stubEEEOT_RNSt16remove_referenceIS8_E4typeE, .-_ZSt7forwardISt17_Rb_tree_iteratorISt4pairIKPhP9func_stubEEEOT_RNSt16remove_referenceIS8_E4typeE
	.section	.text._ZSt7forwardIbEOT_RNSt16remove_referenceIS0_E4typeE,"axG",@progbits,_ZSt7forwardIbEOT_RNSt16remove_referenceIS0_E4typeE,comdat
	.weak	_ZSt7forwardIbEOT_RNSt16remove_referenceIS0_E4typeE
	.type	_ZSt7forwardIbEOT_RNSt16remove_referenceIS0_E4typeE, @function
_ZSt7forwardIbEOT_RNSt16remove_referenceIS0_E4typeE:
.LFB2734:
	.loc 10 74 5
	.cfi_startproc
	endbr64
	pushq	%rbp
	.cfi_def_cfa_offset 16
	.cfi_offset 6, -16
	movq	%rsp, %rbp
	.cfi_def_cfa_register 6
	movq	%rdi, -8(%rbp)
	.loc 10 75 36
	movq	-8(%rbp), %rax
	.loc 10 75 39
	popq	%rbp
	.cfi_def_cfa 7, 8
	ret
	.cfi_endproc
.LFE2734:
	.size	_ZSt7forwardIbEOT_RNSt16remove_referenceIS0_E4typeE, .-_ZSt7forwardIbEOT_RNSt16remove_referenceIS0_E4typeE
	.section	.text._ZN9__gnu_cxx13new_allocatorISt13_Rb_tree_nodeISt4pairIKPhP9func_stubEEE7destroyIS7_EEvPT_,"axG",@progbits,_ZN9__gnu_cxx13new_allocatorISt13_Rb_tree_nodeISt4pairIKPhP9func_stubEEE7destroyIS7_EEvPT_,comdat
	.align 2
	.weak	_ZN9__gnu_cxx13new_allocatorISt13_Rb_tree_nodeISt4pairIKPhP9func_stubEEE7destroyIS7_EEvPT_
	.type	_ZN9__gnu_cxx13new_allocatorISt13_Rb_tree_nodeISt4pairIKPhP9func_stubEEE7destroyIS7_EEvPT_, @function
_ZN9__gnu_cxx13new_allocatorISt13_Rb_tree_nodeISt4pairIKPhP9func_stubEEE7destroyIS7_EEvPT_:
.LFB2762:
	.loc 7 150 2
	.cfi_startproc
	endbr64
	pushq	%rbp
	.cfi_def_cfa_offset 16
	.cfi_offset 6, -16
	movq	%rsp, %rbp
	.cfi_def_cfa_register 6
	movq	%rdi, -8(%rbp)
	movq	%rsi, -16(%rbp)
	.loc 7 152 17
	nop
	popq	%rbp
	.cfi_def_cfa 7, 8
	ret
	.cfi_endproc
.LFE2762:
	.size	_ZN9__gnu_cxx13new_allocatorISt13_Rb_tree_nodeISt4pairIKPhP9func_stubEEE7destroyIS7_EEvPT_, .-_ZN9__gnu_cxx13new_allocatorISt13_Rb_tree_nodeISt4pairIKPhP9func_stubEEE7destroyIS7_EEvPT_
	.section	.text._ZN9__gnu_cxx13new_allocatorISt13_Rb_tree_nodeISt4pairIKPhP9func_stubEEE10deallocateEPS8_m,"axG",@progbits,_ZN9__gnu_cxx13new_allocatorISt13_Rb_tree_nodeISt4pairIKPhP9func_stubEEE10deallocateEPS8_m,comdat
	.align 2
	.weak	_ZN9__gnu_cxx13new_allocatorISt13_Rb_tree_nodeISt4pairIKPhP9func_stubEEE10deallocateEPS8_m
	.type	_ZN9__gnu_cxx13new_allocatorISt13_Rb_tree_nodeISt4pairIKPhP9func_stubEEE10deallocateEPS8_m, @function
_ZN9__gnu_cxx13new_allocatorISt13_Rb_tree_nodeISt4pairIKPhP9func_stubEEE10deallocateEPS8_m:
.LFB2763:
	.loc 7 119 7
	.cfi_startproc
	endbr64
	pushq	%rbp
	.cfi_def_cfa_offset 16
	.cfi_offset 6, -16
	movq	%rsp, %rbp
	.cfi_def_cfa_register 6
	subq	$32, %rsp
	movq	%rdi, -8(%rbp)
	movq	%rsi, -16(%rbp)
	movq	%rdx, -24(%rbp)
	.loc 7 128 19
	movq	-16(%rbp), %rax
	movq	%rax, %rdi
	call	_ZdlPv@PLT
	.loc 7 129 7
	nop
	leave
	.cfi_def_cfa 7, 8
	ret
	.cfi_endproc
.LFE2763:
	.size	_ZN9__gnu_cxx13new_allocatorISt13_Rb_tree_nodeISt4pairIKPhP9func_stubEEE10deallocateEPS8_m, .-_ZN9__gnu_cxx13new_allocatorISt13_Rb_tree_nodeISt4pairIKPhP9func_stubEEE10deallocateEPS8_m
	.section	.text._ZNSt16allocator_traitsISaISt13_Rb_tree_nodeISt4pairIKPhP9func_stubEEEE8allocateERS8_m,"axG",@progbits,_ZNSt16allocator_traitsISaISt13_Rb_tree_nodeISt4pairIKPhP9func_stubEEEE8allocateERS8_m,comdat
	.weak	_ZNSt16allocator_traitsISaISt13_Rb_tree_nodeISt4pairIKPhP9func_stubEEEE8allocateERS8_m
	.type	_ZNSt16allocator_traitsISaISt13_Rb_tree_nodeISt4pairIKPhP9func_stubEEEE8allocateERS8_m, @function
_ZNSt16allocator_traitsISaISt13_Rb_tree_nodeISt4pairIKPhP9func_stubEEEE8allocateERS8_m:
.LFB2764:
	.loc 11 442 7
	.cfi_startproc
	endbr64
	pushq	%rbp
	.cfi_def_cfa_offset 16
	.cfi_offset 6, -16
	movq	%rsp, %rbp
	.cfi_def_cfa_register 6
	subq	$16, %rsp
	movq	%rdi, -8(%rbp)
	movq	%rsi, -16(%rbp)
	.loc 11 443 32
	movq	-16(%rbp), %rcx
	movq	-8(%rbp), %rax
	movl	$0, %edx
	movq	%rcx, %rsi
	movq	%rax, %rdi
	call	_ZN9__gnu_cxx13new_allocatorISt13_Rb_tree_nodeISt4pairIKPhP9func_stubEEE8allocateEmPKv
	.loc 11 443 35
	leave
	.cfi_def_cfa 7, 8
	ret
	.cfi_endproc
.LFE2764:
	.size	_ZNSt16allocator_traitsISaISt13_Rb_tree_nodeISt4pairIKPhP9func_stubEEEE8allocateERS8_m, .-_ZNSt16allocator_traitsISaISt13_Rb_tree_nodeISt4pairIKPhP9func_stubEEEE8allocateERS8_m
	.section	.text._ZNSt16allocator_traitsISaISt13_Rb_tree_nodeISt4pairIKPhP9func_stubEEEE9constructIS6_JS1_IS2_S5_EEEEvRS8_PT_DpOT0_,"axG",@progbits,_ZNSt16allocator_traitsISaISt13_Rb_tree_nodeISt4pairIKPhP9func_stubEEEE9constructIS6_JS1_IS2_S5_EEEEvRS8_PT_DpOT0_,comdat
	.weak	_ZNSt16allocator_traitsISaISt13_Rb_tree_nodeISt4pairIKPhP9func_stubEEEE9constructIS6_JS1_IS2_S5_EEEEvRS8_PT_DpOT0_
	.type	_ZNSt16allocator_traitsISaISt13_Rb_tree_nodeISt4pairIKPhP9func_stubEEEE9constructIS6_JS1_IS2_S5_EEEEvRS8_PT_DpOT0_, @function
_ZNSt16allocator_traitsISaISt13_Rb_tree_nodeISt4pairIKPhP9func_stubEEEE9constructIS6_JS1_IS2_S5_EEEEvRS8_PT_DpOT0_:
.LFB2765:
	.loc 11 481 2
	.cfi_startproc
	endbr64
	pushq	%rbp
	.cfi_def_cfa_offset 16
	.cfi_offset 6, -16
	movq	%rsp, %rbp
	.cfi_def_cfa_register 6
	subq	$32, %rsp
	movq	%rdi, -8(%rbp)
	movq	%rsi, -16(%rbp)
	movq	%rdx, -24(%rbp)
	.loc 11 483 4
	movq	-24(%rbp), %rax
	movq	%rax, %rdi
	call	_ZSt7forwardISt4pairIPhP9func_stubEEOT_RNSt16remove_referenceIS5_E4typeE
	movq	%rax, %rdx
	movq	-16(%rbp), %rcx
	movq	-8(%rbp), %rax
	movq	%rcx, %rsi
	movq	%rax, %rdi
	call	_ZN9__gnu_cxx13new_allocatorISt13_Rb_tree_nodeISt4pairIKPhP9func_stubEEE9constructIS7_JS2_IS3_S6_EEEEvPT_DpOT0_
	.loc 11 483 56
	nop
	leave
	.cfi_def_cfa 7, 8
	ret
	.cfi_endproc
.LFE2765:
	.size	_ZNSt16allocator_traitsISaISt13_Rb_tree_nodeISt4pairIKPhP9func_stubEEEE9constructIS6_JS1_IS2_S5_EEEEvRS8_PT_DpOT0_, .-_ZNSt16allocator_traitsISaISt13_Rb_tree_nodeISt4pairIKPhP9func_stubEEEE9constructIS6_JS1_IS2_S5_EEEEvRS8_PT_DpOT0_
	.section	.text._ZSt7forwardIRPSt13_Rb_tree_nodeISt4pairIKPhP9func_stubEEEOT_RNSt16remove_referenceISA_E4typeE,"axG",@progbits,_ZSt7forwardIRPSt13_Rb_tree_nodeISt4pairIKPhP9func_stubEEEOT_RNSt16remove_referenceISA_E4typeE,comdat
	.weak	_ZSt7forwardIRPSt13_Rb_tree_nodeISt4pairIKPhP9func_stubEEEOT_RNSt16remove_referenceISA_E4typeE
	.type	_ZSt7forwardIRPSt13_Rb_tree_nodeISt4pairIKPhP9func_stubEEEOT_RNSt16remove_referenceISA_E4typeE, @function
_ZSt7forwardIRPSt13_Rb_tree_nodeISt4pairIKPhP9func_stubEEEOT_RNSt16remove_referenceISA_E4typeE:
.LFB2766:
	.loc 10 74 5
	.cfi_startproc
	endbr64
	pushq	%rbp
	.cfi_def_cfa_offset 16
	.cfi_offset 6, -16
	movq	%rsp, %rbp
	.cfi_def_cfa_register 6
	movq	%rdi, -8(%rbp)
	.loc 10 75 36
	movq	-8(%rbp), %rax
	.loc 10 75 39
	popq	%rbp
	.cfi_def_cfa 7, 8
	ret
	.cfi_endproc
.LFE2766:
	.size	_ZSt7forwardIRPSt13_Rb_tree_nodeISt4pairIKPhP9func_stubEEEOT_RNSt16remove_referenceISA_E4typeE, .-_ZSt7forwardIRPSt13_Rb_tree_nodeISt4pairIKPhP9func_stubEEEOT_RNSt16remove_referenceISA_E4typeE
	.section	.text._ZSt7forwardIRPSt18_Rb_tree_node_baseEOT_RNSt16remove_referenceIS3_E4typeE,"axG",@progbits,_ZSt7forwardIRPSt18_Rb_tree_node_baseEOT_RNSt16remove_referenceIS3_E4typeE,comdat
	.weak	_ZSt7forwardIRPSt18_Rb_tree_node_baseEOT_RNSt16remove_referenceIS3_E4typeE
	.type	_ZSt7forwardIRPSt18_Rb_tree_node_baseEOT_RNSt16remove_referenceIS3_E4typeE, @function
_ZSt7forwardIRPSt18_Rb_tree_node_baseEOT_RNSt16remove_referenceIS3_E4typeE:
.LFB2767:
	.loc 10 74 5
	.cfi_startproc
	endbr64
	pushq	%rbp
	.cfi_def_cfa_offset 16
	.cfi_offset 6, -16
	movq	%rsp, %rbp
	.cfi_def_cfa_register 6
	movq	%rdi, -8(%rbp)
	.loc 10 75 36
	movq	-8(%rbp), %rax
	.loc 10 75 39
	popq	%rbp
	.cfi_def_cfa 7, 8
	ret
	.cfi_endproc
.LFE2767:
	.size	_ZSt7forwardIRPSt18_Rb_tree_node_baseEOT_RNSt16remove_referenceIS3_E4typeE, .-_ZSt7forwardIRPSt18_Rb_tree_node_baseEOT_RNSt16remove_referenceIS3_E4typeE
	.section	.text._ZNK9__gnu_cxx16__aligned_membufISt4pairIKPhP9func_stubEE6_M_ptrEv,"axG",@progbits,_ZNK9__gnu_cxx16__aligned_membufISt4pairIKPhP9func_stubEE6_M_ptrEv,comdat
	.align 2
	.weak	_ZNK9__gnu_cxx16__aligned_membufISt4pairIKPhP9func_stubEE6_M_ptrEv
	.type	_ZNK9__gnu_cxx16__aligned_membufISt4pairIKPhP9func_stubEE6_M_ptrEv, @function
_ZNK9__gnu_cxx16__aligned_membufISt4pairIKPhP9func_stubEE6_M_ptrEv:
.LFB2768:
	.loc 9 76 7
	.cfi_startproc
	endbr64
	pushq	%rbp
	.cfi_def_cfa_offset 16
	.cfi_offset 6, -16
	movq	%rsp, %rbp
	.cfi_def_cfa_register 6
	subq	$16, %rsp
	movq	%rdi, -8(%rbp)
	.loc 9 77 16
	movq	-8(%rbp), %rax
	movq	%rax, %rdi
	call	_ZNK9__gnu_cxx16__aligned_membufISt4pairIKPhP9func_stubEE7_M_addrEv
	.loc 9 77 52
	leave
	.cfi_def_cfa 7, 8
	ret
	.cfi_endproc
.LFE2768:
	.size	_ZNK9__gnu_cxx16__aligned_membufISt4pairIKPhP9func_stubEE6_M_ptrEv, .-_ZNK9__gnu_cxx16__aligned_membufISt4pairIKPhP9func_stubEE6_M_ptrEv
	.section	.text._ZN9__gnu_cxx13new_allocatorISt13_Rb_tree_nodeISt4pairIKPhP9func_stubEEE8allocateEmPKv,"axG",@progbits,_ZN9__gnu_cxx13new_allocatorISt13_Rb_tree_nodeISt4pairIKPhP9func_stubEEE8allocateEmPKv,comdat
	.align 2
	.weak	_ZN9__gnu_cxx13new_allocatorISt13_Rb_tree_nodeISt4pairIKPhP9func_stubEEE8allocateEmPKv
	.type	_ZN9__gnu_cxx13new_allocatorISt13_Rb_tree_nodeISt4pairIKPhP9func_stubEEE8allocateEmPKv, @function
_ZN9__gnu_cxx13new_allocatorISt13_Rb_tree_nodeISt4pairIKPhP9func_stubEEE8allocateEmPKv:
.LFB2779:
	.loc 7 102 7
	.cfi_startproc
	endbr64
	pushq	%rbp
	.cfi_def_cfa_offset 16
	.cfi_offset 6, -16
	movq	%rsp, %rbp
	.cfi_def_cfa_register 6
	subq	$32, %rsp
	movq	%rdi, -8(%rbp)
	movq	%rsi, -16(%rbp)
	movq	%rdx, -24(%rbp)
	.loc 7 104 10
	movq	-8(%rbp), %rax
	movq	%rax, %rdi
	call	_ZNK9__gnu_cxx13new_allocatorISt13_Rb_tree_nodeISt4pairIKPhP9func_stubEEE8max_sizeEv
	cmpq	%rax, -16(%rbp)
	seta	%al
	.loc 7 104 2
	testb	%al, %al
	je	.L230
	.loc 7 105 26
	call	_ZSt17__throw_bad_allocv@PLT
.L230:
	.loc 7 114 41
	movq	-16(%rbp), %rdx
	movq	%rdx, %rax
	addq	%rax, %rax
	addq	%rdx, %rax
	salq	$4, %rax
	movq	%rax, %rdi
	call	_Znwm@PLT
	.loc 7 115 7
	leave
	.cfi_def_cfa 7, 8
	ret
	.cfi_endproc
.LFE2779:
	.size	_ZN9__gnu_cxx13new_allocatorISt13_Rb_tree_nodeISt4pairIKPhP9func_stubEEE8allocateEmPKv, .-_ZN9__gnu_cxx13new_allocatorISt13_Rb_tree_nodeISt4pairIKPhP9func_stubEEE8allocateEmPKv
	.section	.text._ZN9__gnu_cxx13new_allocatorISt13_Rb_tree_nodeISt4pairIKPhP9func_stubEEE9constructIS7_JS2_IS3_S6_EEEEvPT_DpOT0_,"axG",@progbits,_ZN9__gnu_cxx13new_allocatorISt13_Rb_tree_nodeISt4pairIKPhP9func_stubEEE9constructIS7_JS2_IS3_S6_EEEEvPT_DpOT0_,comdat
	.align 2
	.weak	_ZN9__gnu_cxx13new_allocatorISt13_Rb_tree_nodeISt4pairIKPhP9func_stubEEE9constructIS7_JS2_IS3_S6_EEEEvPT_DpOT0_
	.type	_ZN9__gnu_cxx13new_allocatorISt13_Rb_tree_nodeISt4pairIKPhP9func_stubEEE9constructIS7_JS2_IS3_S6_EEEEvPT_DpOT0_, @function
_ZN9__gnu_cxx13new_allocatorISt13_Rb_tree_nodeISt4pairIKPhP9func_stubEEE9constructIS7_JS2_IS3_S6_EEEEvPT_DpOT0_:
.LFB2780:
	.loc 7 144 2
	.cfi_startproc
	endbr64
	pushq	%rbp
	.cfi_def_cfa_offset 16
	.cfi_offset 6, -16
	movq	%rsp, %rbp
	.cfi_def_cfa_register 6
	pushq	%rbx
	subq	$40, %rsp
	.cfi_offset 3, -24
	movq	%rdi, -24(%rbp)
	movq	%rsi, -32(%rbp)
	movq	%rdx, -40(%rbp)
	.loc 7 146 46
	movq	-40(%rbp), %rax
	movq	%rax, %rdi
	call	_ZSt7forwardISt4pairIPhP9func_stubEEOT_RNSt16remove_referenceIS5_E4typeE
	movq	%rax, %rbx
	.loc 7 146 18
	movq	-32(%rbp), %rax
	.loc 7 146 4
	movq	%rax, %rsi
	movl	$16, %edi
	call	_ZnwmPv
	movq	%rbx, %rsi
	movq	%rax, %rdi
	call	_ZNSt4pairIKPhP9func_stubEC1IS0_S3_Lb1EEEOS_IT_T0_E
	.loc 7 146 60
	nop
	addq	$40, %rsp
	popq	%rbx
	popq	%rbp
	.cfi_def_cfa 7, 8
	ret
	.cfi_endproc
.LFE2780:
	.size	_ZN9__gnu_cxx13new_allocatorISt13_Rb_tree_nodeISt4pairIKPhP9func_stubEEE9constructIS7_JS2_IS3_S6_EEEEvPT_DpOT0_, .-_ZN9__gnu_cxx13new_allocatorISt13_Rb_tree_nodeISt4pairIKPhP9func_stubEEE9constructIS7_JS2_IS3_S6_EEEEvPT_DpOT0_
	.section	.text._ZNK9__gnu_cxx16__aligned_membufISt4pairIKPhP9func_stubEE7_M_addrEv,"axG",@progbits,_ZNK9__gnu_cxx16__aligned_membufISt4pairIKPhP9func_stubEE7_M_addrEv,comdat
	.align 2
	.weak	_ZNK9__gnu_cxx16__aligned_membufISt4pairIKPhP9func_stubEE7_M_addrEv
	.type	_ZNK9__gnu_cxx16__aligned_membufISt4pairIKPhP9func_stubEE7_M_addrEv, @function
_ZNK9__gnu_cxx16__aligned_membufISt4pairIKPhP9func_stubEE7_M_addrEv:
.LFB2781:
	.loc 9 68 7
	.cfi_startproc
	endbr64
	pushq	%rbp
	.cfi_def_cfa_offset 16
	.cfi_offset 6, -16
	movq	%rsp, %rbp
	.cfi_def_cfa_register 6
	movq	%rdi, -8(%rbp)
	.loc 9 69 52
	movq	-8(%rbp), %rax
	.loc 9 69 55
	popq	%rbp
	.cfi_def_cfa 7, 8
	ret
	.cfi_endproc
.LFE2781:
	.size	_ZNK9__gnu_cxx16__aligned_membufISt4pairIKPhP9func_stubEE7_M_addrEv, .-_ZNK9__gnu_cxx16__aligned_membufISt4pairIKPhP9func_stubEE7_M_addrEv
	.section	.text._ZNK9__gnu_cxx13new_allocatorISt13_Rb_tree_nodeISt4pairIKPhP9func_stubEEE8max_sizeEv,"axG",@progbits,_ZNK9__gnu_cxx13new_allocatorISt13_Rb_tree_nodeISt4pairIKPhP9func_stubEEE8max_sizeEv,comdat
	.align 2
	.weak	_ZNK9__gnu_cxx13new_allocatorISt13_Rb_tree_nodeISt4pairIKPhP9func_stubEEE8max_sizeEv
	.type	_ZNK9__gnu_cxx13new_allocatorISt13_Rb_tree_nodeISt4pairIKPhP9func_stubEEE8max_sizeEv, @function
_ZNK9__gnu_cxx13new_allocatorISt13_Rb_tree_nodeISt4pairIKPhP9func_stubEEE8max_sizeEv:
.LFB2784:
	.loc 7 132 7
	.cfi_startproc
	endbr64
	pushq	%rbp
	.cfi_def_cfa_offset 16
	.cfi_offset 6, -16
	movq	%rsp, %rbp
	.cfi_def_cfa_register 6
	movq	%rdi, -8(%rbp)
	.loc 7 135 45
	movabsq	$192153584101141162, %rax
	.loc 7 139 7
	popq	%rbp
	.cfi_def_cfa 7, 8
	ret
	.cfi_endproc
.LFE2784:
	.size	_ZNK9__gnu_cxx13new_allocatorISt13_Rb_tree_nodeISt4pairIKPhP9func_stubEEE8max_sizeEv, .-_ZNK9__gnu_cxx13new_allocatorISt13_Rb_tree_nodeISt4pairIKPhP9func_stubEEE8max_sizeEv
	.section	.text._ZNSt4pairIKPhP9func_stubEC2IS0_S3_Lb1EEEOS_IT_T0_E,"axG",@progbits,_ZNSt4pairIKPhP9func_stubEC5IS0_S3_Lb1EEEOS_IT_T0_E,comdat
	.align 2
	.weak	_ZNSt4pairIKPhP9func_stubEC2IS0_S3_Lb1EEEOS_IT_T0_E
	.type	_ZNSt4pairIKPhP9func_stubEC2IS0_S3_Lb1EEEOS_IT_T0_E, @function
_ZNSt4pairIKPhP9func_stubEC2IS0_S3_Lb1EEEOS_IT_T0_E:
.LFB2786:
	.loc 8 360 12
	.cfi_startproc
	endbr64
	pushq	%rbp
	.cfi_def_cfa_offset 16
	.cfi_offset 6, -16
	movq	%rsp, %rbp
	.cfi_def_cfa_register 6
	subq	$16, %rsp
	movq	%rdi, -8(%rbp)
	movq	%rsi, -16(%rbp)
.LBB24:
	.loc 8 361 32
	movq	-16(%rbp), %rax
	.loc 8 361 27
	movq	%rax, %rdi
	call	_ZSt7forwardIPhEOT_RNSt16remove_referenceIS1_E4typeE
	.loc 8 362 40
	movq	(%rax), %rdx
	movq	-8(%rbp), %rax
	movq	%rdx, (%rax)
	.loc 8 362 33
	movq	-16(%rbp), %rax
	addq	$8, %rax
	.loc 8 362 28
	movq	%rax, %rdi
	call	_ZSt7forwardIP9func_stubEOT_RNSt16remove_referenceIS2_E4typeE
	.loc 8 362 40
	movq	(%rax), %rdx
	movq	-8(%rbp), %rax
	movq	%rdx, 8(%rax)
.LBE24:
	.loc 8 362 44
	nop
	leave
	.cfi_def_cfa 7, 8
	ret
	.cfi_endproc
.LFE2786:
	.size	_ZNSt4pairIKPhP9func_stubEC2IS0_S3_Lb1EEEOS_IT_T0_E, .-_ZNSt4pairIKPhP9func_stubEC2IS0_S3_Lb1EEEOS_IT_T0_E
	.weak	_ZNSt4pairIKPhP9func_stubEC1IS0_S3_Lb1EEEOS_IT_T0_E
	.set	_ZNSt4pairIKPhP9func_stubEC1IS0_S3_Lb1EEEOS_IT_T0_E,_ZNSt4pairIKPhP9func_stubEC2IS0_S3_Lb1EEEOS_IT_T0_E
	.section	.text._ZSt7forwardIPhEOT_RNSt16remove_referenceIS1_E4typeE,"axG",@progbits,_ZSt7forwardIPhEOT_RNSt16remove_referenceIS1_E4typeE,comdat
	.weak	_ZSt7forwardIPhEOT_RNSt16remove_referenceIS1_E4typeE
	.type	_ZSt7forwardIPhEOT_RNSt16remove_referenceIS1_E4typeE, @function
_ZSt7forwardIPhEOT_RNSt16remove_referenceIS1_E4typeE:
.LFB2788:
	.loc 10 74 5
	.cfi_startproc
	endbr64
	pushq	%rbp
	.cfi_def_cfa_offset 16
	.cfi_offset 6, -16
	movq	%rsp, %rbp
	.cfi_def_cfa_register 6
	movq	%rdi, -8(%rbp)
	.loc 10 75 36
	movq	-8(%rbp), %rax
	.loc 10 75 39
	popq	%rbp
	.cfi_def_cfa 7, 8
	ret
	.cfi_endproc
.LFE2788:
	.size	_ZSt7forwardIPhEOT_RNSt16remove_referenceIS1_E4typeE, .-_ZSt7forwardIPhEOT_RNSt16remove_referenceIS1_E4typeE
	.section	.text._ZSt7forwardIP9func_stubEOT_RNSt16remove_referenceIS2_E4typeE,"axG",@progbits,_ZSt7forwardIP9func_stubEOT_RNSt16remove_referenceIS2_E4typeE,comdat
	.weak	_ZSt7forwardIP9func_stubEOT_RNSt16remove_referenceIS2_E4typeE
	.type	_ZSt7forwardIP9func_stubEOT_RNSt16remove_referenceIS2_E4typeE, @function
_ZSt7forwardIP9func_stubEOT_RNSt16remove_referenceIS2_E4typeE:
.LFB2789:
	.loc 10 74 5
	.cfi_startproc
	endbr64
	pushq	%rbp
	.cfi_def_cfa_offset 16
	.cfi_offset 6, -16
	movq	%rsp, %rbp
	.cfi_def_cfa_register 6
	movq	%rdi, -8(%rbp)
	.loc 10 75 36
	movq	-8(%rbp), %rax
	.loc 10 75 39
	popq	%rbp
	.cfi_def_cfa 7, 8
	ret
	.cfi_endproc
.LFE2789:
	.size	_ZSt7forwardIP9func_stubEOT_RNSt16remove_referenceIS2_E4typeE, .-_ZSt7forwardIP9func_stubEOT_RNSt16remove_referenceIS2_E4typeE
	.text
	.type	_Z41__static_initialization_and_destruction_0ii, @function
_Z41__static_initialization_and_destruction_0ii:
.LFB2790:
	.loc 5 42 1
	.cfi_startproc
	endbr64
	pushq	%rbp
	.cfi_def_cfa_offset 16
	.cfi_offset 6, -16
	movq	%rsp, %rbp
	.cfi_def_cfa_register 6
	subq	$16, %rsp
	movl	%edi, -4(%rbp)
	movl	%esi, -8(%rbp)
	.loc 5 42 1
	cmpl	$1, -4(%rbp)
	jne	.L244
	.loc 5 42 1 is_stmt 0 discriminator 1
	cmpl	$65535, -8(%rbp)
	jne	.L244
	.file 13 "/usr/include/c++/9/iostream"
	.loc 13 74 25 is_stmt 1
	leaq	_ZStL8__ioinit(%rip), %rdi
	call	_ZNSt8ios_base4InitC1Ev@PLT
	leaq	__dso_handle(%rip), %rdx
	leaq	_ZStL8__ioinit(%rip), %rsi
	movq	_ZNSt8ios_base4InitD1Ev@GOTPCREL(%rip), %rax
	movq	%rax, %rdi
	call	__cxa_atexit@PLT
.L244:
	.loc 5 42 1
	nop
	leave
	.cfi_def_cfa 7, 8
	ret
	.cfi_endproc
.LFE2790:
	.size	_Z41__static_initialization_and_destruction_0ii, .-_Z41__static_initialization_and_destruction_0ii
	.type	_GLOBAL__sub_I_main, @function
_GLOBAL__sub_I_main:
.LFB2791:
	.loc 5 42 1
	.cfi_startproc
	endbr64
	pushq	%rbp
	.cfi_def_cfa_offset 16
	.cfi_offset 6, -16
	movq	%rsp, %rbp
	.cfi_def_cfa_register 6
	.loc 5 42 1
	movl	$65535, %esi
	movl	$1, %edi
	call	_Z41__static_initialization_and_destruction_0ii
	popq	%rbp
	.cfi_def_cfa 7, 8
	ret
	.cfi_endproc
.LFE2791:
	.size	_GLOBAL__sub_I_main, .-_GLOBAL__sub_I_main
	.section	.init_array,"aw"
	.align 8
	.quad	_GLOBAL__sub_I_main
	.text
.Letext0:
	.file 14 "/usr/include/c++/9/cwchar"
	.file 15 "/usr/include/c++/9/bits/exception_ptr.h"
	.file 16 "/usr/include/c++/9/type_traits"
	.file 17 "/usr/include/x86_64-linux-gnu/c++/9/bits/c++config.h"
	.file 18 "/usr/include/c++/9/bits/cpp_type_traits.h"
	.file 19 "/usr/include/c++/9/debug/debug.h"
	.file 20 "/usr/include/c++/9/bits/char_traits.h"
	.file 21 "/usr/include/c++/9/cstdint"
	.file 22 "/usr/include/c++/9/clocale"
	.file 23 "/usr/include/c++/9/cstdlib"
	.file 24 "/usr/include/c++/9/cstdio"
	.file 25 "/usr/include/c++/9/bits/basic_string.h"
	.file 26 "/usr/include/c++/9/system_error"
	.file 27 "/usr/include/c++/9/bits/ios_base.h"
	.file 28 "/usr/include/c++/9/cwctype"
	.file 29 "/usr/include/c++/9/iosfwd"
	.file 30 "/usr/include/c++/9/cstddef"
	.file 31 "/usr/include/c++/9/cstring"
	.file 32 "/usr/include/c++/9/bits/uses_allocator.h"
	.file 33 "/usr/include/c++/9/tuple"
	.file 34 "/usr/include/c++/9/initializer_list"
	.file 35 "/usr/include/c++/9/bits/predefined_ops.h"
	.file 36 "/usr/include/c++/9/ext/numeric_traits.h"
	.file 37 "/usr/include/c++/9/ext/alloc_traits.h"
	.file 38 "/usr/lib/gcc/x86_64-linux-gnu/9/include/stddef.h"
	.file 39 "<built-in>"
	.file 40 "/usr/include/x86_64-linux-gnu/bits/types/wint_t.h"
	.file 41 "/usr/include/x86_64-linux-gnu/bits/types/__mbstate_t.h"
	.file 42 "/usr/include/x86_64-linux-gnu/bits/types/mbstate_t.h"
	.file 43 "/usr/include/x86_64-linux-gnu/bits/types/__FILE.h"
	.file 44 "/usr/include/x86_64-linux-gnu/bits/types/struct_FILE.h"
	.file 45 "/usr/include/x86_64-linux-gnu/bits/types/FILE.h"
	.file 46 "/usr/include/wchar.h"
	.file 47 "/usr/include/x86_64-linux-gnu/bits/types/struct_tm.h"
	.file 48 "/usr/include/x86_64-linux-gnu/bits/types.h"
	.file 49 "/usr/include/x86_64-linux-gnu/bits/stdint-intn.h"
	.file 50 "/usr/include/x86_64-linux-gnu/bits/stdint-uintn.h"
	.file 51 "/usr/include/stdint.h"
	.file 52 "/usr/include/locale.h"
	.file 53 "/usr/include/time.h"
	.file 54 "/usr/include/x86_64-linux-gnu/c++/9/bits/atomic_word.h"
	.file 55 "/usr/include/stdlib.h"
	.file 56 "/usr/include/x86_64-linux-gnu/bits/types/__fpos_t.h"
	.file 57 "/usr/include/stdio.h"
	.file 58 "/usr/include/x86_64-linux-gnu/bits/sys_errlist.h"
	.file 59 "/usr/include/errno.h"
	.file 60 "/usr/include/x86_64-linux-gnu/bits/wctype-wchar.h"
	.file 61 "/usr/include/wctype.h"
	.file 62 "/usr/include/unistd.h"
	.file 63 "/usr/include/x86_64-linux-gnu/bits/getopt_core.h"
	.file 64 "/usr/include/string.h"
	.section	.data.rel.local.DW.ref.__gxx_personality_v0,"awG",@progbits,DW.ref.__gxx_personality_v0,comdat
	.align 8
	.type	DW.ref.__gxx_personality_v0, @object
	.size	DW.ref.__gxx_personality_v0, 8
DW.ref.__gxx_personality_v0:
	.quad	__gxx_personality_v0
	.hidden	__dso_handle
	.ident	"GCC: (Ubuntu 9.4.0-1ubuntu1~20.04.3) 9.4.0"
	.section	.note.GNU-stack,"",@progbits
	.section	.note.gnu.property,"a"
	.align 8
	.long	 1f - 0f
	.long	 4f - 1f
	.long	 5
0:
	.string	 "GNU"
1:
	.align 8
	.long	 0xc0000002
	.long	 3f - 2f
2:
	.long	 0x3
3:
	.align 8
4:
